
a.out:     file format elf64-x86-64


Disassembly of section .init:

0000000000402680 <_init>:
  402680:	48 83 ec 08          	sub    $0x8,%rsp
  402684:	48 8b 05 a5 0b 23 00 	mov    0x230ba5(%rip),%rax        # 633230 <_DYNAMIC+0x1f0>
  40268b:	48 85 c0             	test   %rax,%rax
  40268e:	74 05                	je     402695 <_init+0x15>
  402690:	e8 1b 01 00 00       	callq  4027b0 <__gmon_start__@plt>
  402695:	e8 f6 06 00 00       	callq  402d90 <frame_dummy>
  40269a:	e8 e1 31 02 00       	callq  425880 <__do_global_ctors_aux>
  40269f:	48 83 c4 08          	add    $0x8,%rsp
  4026a3:	c3                   	retq   

Disassembly of section .plt:

00000000004026b0 <_ZSt20__throw_length_errorPKc@plt-0x10>:
  4026b0:	ff 35 8a 0b 23 00    	pushq  0x230b8a(%rip)        # 633240 <_GLOBAL_OFFSET_TABLE_+0x8>
  4026b6:	ff 25 8c 0b 23 00    	jmpq   *0x230b8c(%rip)        # 633248 <_GLOBAL_OFFSET_TABLE_+0x10>
  4026bc:	0f 1f 40 00          	nopl   0x0(%rax)

00000000004026c0 <_ZSt20__throw_length_errorPKc@plt>:
  4026c0:	ff 25 8a 0b 23 00    	jmpq   *0x230b8a(%rip)        # 633250 <_GLOBAL_OFFSET_TABLE_+0x18>
  4026c6:	68 00 00 00 00       	pushq  $0x0
  4026cb:	e9 e0 ff ff ff       	jmpq   4026b0 <_init+0x30>

00000000004026d0 <_ZSt7getlineIcSt11char_traitsIcESaIcEERSt13basic_istreamIT_T0_ES7_RSbIS4_S5_T1_ES4_@plt>:
  4026d0:	ff 25 82 0b 23 00    	jmpq   *0x230b82(%rip)        # 633258 <_GLOBAL_OFFSET_TABLE_+0x20>
  4026d6:	68 01 00 00 00       	pushq  $0x1
  4026db:	e9 d0 ff ff ff       	jmpq   4026b0 <_init+0x30>

00000000004026e0 <_ZNSolsEd@plt>:
  4026e0:	ff 25 7a 0b 23 00    	jmpq   *0x230b7a(%rip)        # 633260 <_GLOBAL_OFFSET_TABLE_+0x28>
  4026e6:	68 02 00 00 00       	pushq  $0x2
  4026eb:	e9 c0 ff ff ff       	jmpq   4026b0 <_init+0x30>

00000000004026f0 <_ZNSolsEl@plt>:
  4026f0:	ff 25 72 0b 23 00    	jmpq   *0x230b72(%rip)        # 633268 <_GLOBAL_OFFSET_TABLE_+0x30>
  4026f6:	68 03 00 00 00       	pushq  $0x3
  4026fb:	e9 b0 ff ff ff       	jmpq   4026b0 <_init+0x30>

0000000000402700 <_ZNSsaSEPKc@plt>:
  402700:	ff 25 6a 0b 23 00    	jmpq   *0x230b6a(%rip)        # 633270 <_GLOBAL_OFFSET_TABLE_+0x38>
  402706:	68 04 00 00 00       	pushq  $0x4
  40270b:	e9 a0 ff ff ff       	jmpq   4026b0 <_init+0x30>

0000000000402710 <_ZNSsC1Ev@plt>:
  402710:	ff 25 62 0b 23 00    	jmpq   *0x230b62(%rip)        # 633278 <_GLOBAL_OFFSET_TABLE_+0x40>
  402716:	68 05 00 00 00       	pushq  $0x5
  40271b:	e9 90 ff ff ff       	jmpq   4026b0 <_init+0x30>

0000000000402720 <_ZNSt18basic_stringstreamIcSt11char_traitsIcESaIcEEC1ERKSsSt13_Ios_Openmode@plt>:
  402720:	ff 25 5a 0b 23 00    	jmpq   *0x230b5a(%rip)        # 633280 <_GLOBAL_OFFSET_TABLE_+0x48>
  402726:	68 06 00 00 00       	pushq  $0x6
  40272b:	e9 80 ff ff ff       	jmpq   4026b0 <_init+0x30>

0000000000402730 <_ZNSolsEi@plt>:
  402730:	ff 25 52 0b 23 00    	jmpq   *0x230b52(%rip)        # 633288 <_GLOBAL_OFFSET_TABLE_+0x50>
  402736:	68 07 00 00 00       	pushq  $0x7
  40273b:	e9 70 ff ff ff       	jmpq   4026b0 <_init+0x30>

0000000000402740 <_ZNKSs6substrEmm@plt>:
  402740:	ff 25 4a 0b 23 00    	jmpq   *0x230b4a(%rip)        # 633290 <_GLOBAL_OFFSET_TABLE_+0x58>
  402746:	68 08 00 00 00       	pushq  $0x8
  40274b:	e9 60 ff ff ff       	jmpq   4026b0 <_init+0x30>

0000000000402750 <_ZNKSt9basic_iosIcSt11char_traitsIcEEcvPvEv@plt>:
  402750:	ff 25 42 0b 23 00    	jmpq   *0x230b42(%rip)        # 633298 <_GLOBAL_OFFSET_TABLE_+0x60>
  402756:	68 09 00 00 00       	pushq  $0x9
  40275b:	e9 50 ff ff ff       	jmpq   4026b0 <_init+0x30>

0000000000402760 <ceil@plt>:
  402760:	ff 25 3a 0b 23 00    	jmpq   *0x230b3a(%rip)        # 6332a0 <_GLOBAL_OFFSET_TABLE_+0x68>
  402766:	68 0a 00 00 00       	pushq  $0xa
  40276b:	e9 40 ff ff ff       	jmpq   4026b0 <_init+0x30>

0000000000402770 <abort@plt>:
  402770:	ff 25 32 0b 23 00    	jmpq   *0x230b32(%rip)        # 6332a8 <_GLOBAL_OFFSET_TABLE_+0x70>
  402776:	68 0b 00 00 00       	pushq  $0xb
  40277b:	e9 30 ff ff ff       	jmpq   4026b0 <_init+0x30>

0000000000402780 <__cxa_guard_acquire@plt>:
  402780:	ff 25 2a 0b 23 00    	jmpq   *0x230b2a(%rip)        # 6332b0 <_GLOBAL_OFFSET_TABLE_+0x78>
  402786:	68 0c 00 00 00       	pushq  $0xc
  40278b:	e9 20 ff ff ff       	jmpq   4026b0 <_init+0x30>

0000000000402790 <clock_gettime@plt>:
  402790:	ff 25 22 0b 23 00    	jmpq   *0x230b22(%rip)        # 6332b8 <_GLOBAL_OFFSET_TABLE_+0x80>
  402796:	68 0d 00 00 00       	pushq  $0xd
  40279b:	e9 10 ff ff ff       	jmpq   4026b0 <_init+0x30>

00000000004027a0 <_ZSt7getlineIcSt11char_traitsIcESaIcEERSt13basic_istreamIT_T0_ES7_RSbIS4_S5_T1_E@plt>:
  4027a0:	ff 25 1a 0b 23 00    	jmpq   *0x230b1a(%rip)        # 6332c0 <_GLOBAL_OFFSET_TABLE_+0x88>
  4027a6:	68 0e 00 00 00       	pushq  $0xe
  4027ab:	e9 00 ff ff ff       	jmpq   4026b0 <_init+0x30>

00000000004027b0 <__gmon_start__@plt>:
  4027b0:	ff 25 12 0b 23 00    	jmpq   *0x230b12(%rip)        # 6332c8 <_GLOBAL_OFFSET_TABLE_+0x90>
  4027b6:	68 0f 00 00 00       	pushq  $0xf
  4027bb:	e9 f0 fe ff ff       	jmpq   4026b0 <_init+0x30>

00000000004027c0 <_ZNKSs5c_strEv@plt>:
  4027c0:	ff 25 0a 0b 23 00    	jmpq   *0x230b0a(%rip)        # 6332d0 <_GLOBAL_OFFSET_TABLE_+0x98>
  4027c6:	68 10 00 00 00       	pushq  $0x10
  4027cb:	e9 e0 fe ff ff       	jmpq   4026b0 <_init+0x30>

00000000004027d0 <fseek@plt>:
  4027d0:	ff 25 02 0b 23 00    	jmpq   *0x230b02(%rip)        # 6332d8 <_GLOBAL_OFFSET_TABLE_+0xa0>
  4027d6:	68 11 00 00 00       	pushq  $0x11
  4027db:	e9 d0 fe ff ff       	jmpq   4026b0 <_init+0x30>

00000000004027e0 <_ZdlPv@plt>:
  4027e0:	ff 25 fa 0a 23 00    	jmpq   *0x230afa(%rip)        # 6332e0 <_GLOBAL_OFFSET_TABLE_+0xa8>
  4027e6:	68 12 00 00 00       	pushq  $0x12
  4027eb:	e9 c0 fe ff ff       	jmpq   4026b0 <_init+0x30>

00000000004027f0 <exit@plt>:
  4027f0:	ff 25 f2 0a 23 00    	jmpq   *0x230af2(%rip)        # 6332e8 <_GLOBAL_OFFSET_TABLE_+0xb0>
  4027f6:	68 13 00 00 00       	pushq  $0x13
  4027fb:	e9 b0 fe ff ff       	jmpq   4026b0 <_init+0x30>

0000000000402800 <__assert_fail@plt>:
  402800:	ff 25 ea 0a 23 00    	jmpq   *0x230aea(%rip)        # 6332f0 <_GLOBAL_OFFSET_TABLE_+0xb8>
  402806:	68 14 00 00 00       	pushq  $0x14
  40280b:	e9 a0 fe ff ff       	jmpq   4026b0 <_init+0x30>

0000000000402810 <__cxa_rethrow@plt>:
  402810:	ff 25 e2 0a 23 00    	jmpq   *0x230ae2(%rip)        # 6332f8 <_GLOBAL_OFFSET_TABLE_+0xc0>
  402816:	68 15 00 00 00       	pushq  $0x15
  40281b:	e9 90 fe ff ff       	jmpq   4026b0 <_init+0x30>

0000000000402820 <_ZNSt8ios_base4InitC1Ev@plt>:
  402820:	ff 25 da 0a 23 00    	jmpq   *0x230ada(%rip)        # 633300 <_GLOBAL_OFFSET_TABLE_+0xc8>
  402826:	68 16 00 00 00       	pushq  $0x16
  40282b:	e9 80 fe ff ff       	jmpq   4026b0 <_init+0x30>

0000000000402830 <malloc@plt>:
  402830:	ff 25 d2 0a 23 00    	jmpq   *0x230ad2(%rip)        # 633308 <_GLOBAL_OFFSET_TABLE_+0xd0>
  402836:	68 17 00 00 00       	pushq  $0x17
  40283b:	e9 70 fe ff ff       	jmpq   4026b0 <_init+0x30>

0000000000402840 <fopen@plt>:
  402840:	ff 25 ca 0a 23 00    	jmpq   *0x230aca(%rip)        # 633310 <_GLOBAL_OFFSET_TABLE_+0xd8>
  402846:	68 18 00 00 00       	pushq  $0x18
  40284b:	e9 60 fe ff ff       	jmpq   4026b0 <_init+0x30>

0000000000402850 <__libc_start_main@plt>:
  402850:	ff 25 c2 0a 23 00    	jmpq   *0x230ac2(%rip)        # 633318 <_GLOBAL_OFFSET_TABLE_+0xe0>
  402856:	68 19 00 00 00       	pushq  $0x19
  40285b:	e9 50 fe ff ff       	jmpq   4026b0 <_init+0x30>

0000000000402860 <_ZNKSt19basic_ostringstreamIcSt11char_traitsIcESaIcEE3strEv@plt>:
  402860:	ff 25 ba 0a 23 00    	jmpq   *0x230aba(%rip)        # 633320 <_GLOBAL_OFFSET_TABLE_+0xe8>
  402866:	68 1a 00 00 00       	pushq  $0x1a
  40286b:	e9 40 fe ff ff       	jmpq   4026b0 <_init+0x30>

0000000000402870 <_ZNSsC1ERKSs@plt>:
  402870:	ff 25 b2 0a 23 00    	jmpq   *0x230ab2(%rip)        # 633328 <_GLOBAL_OFFSET_TABLE_+0xf0>
  402876:	68 1b 00 00 00       	pushq  $0x1b
  40287b:	e9 30 fe ff ff       	jmpq   4026b0 <_init+0x30>

0000000000402880 <cos@plt>:
  402880:	ff 25 aa 0a 23 00    	jmpq   *0x230aaa(%rip)        # 633330 <_GLOBAL_OFFSET_TABLE_+0xf8>
  402886:	68 1c 00 00 00       	pushq  $0x1c
  40288b:	e9 20 fe ff ff       	jmpq   4026b0 <_init+0x30>

0000000000402890 <__cxa_atexit@plt>:
  402890:	ff 25 a2 0a 23 00    	jmpq   *0x230aa2(%rip)        # 633338 <_GLOBAL_OFFSET_TABLE_+0x100>
  402896:	68 1d 00 00 00       	pushq  $0x1d
  40289b:	e9 10 fe ff ff       	jmpq   4026b0 <_init+0x30>

00000000004028a0 <_ZStlsISt11char_traitsIcEERSt13basic_ostreamIcT_ES5_c@plt>:
  4028a0:	ff 25 9a 0a 23 00    	jmpq   *0x230a9a(%rip)        # 633340 <_GLOBAL_OFFSET_TABLE_+0x108>
  4028a6:	68 1e 00 00 00       	pushq  $0x1e
  4028ab:	e9 00 fe ff ff       	jmpq   4026b0 <_init+0x30>

00000000004028b0 <_ZNKSs6lengthEv@plt>:
  4028b0:	ff 25 92 0a 23 00    	jmpq   *0x230a92(%rip)        # 633348 <_GLOBAL_OFFSET_TABLE_+0x110>
  4028b6:	68 1f 00 00 00       	pushq  $0x1f
  4028bb:	e9 f0 fd ff ff       	jmpq   4026b0 <_init+0x30>

00000000004028c0 <_ZNSt8ios_base4InitD1Ev@plt>:
  4028c0:	ff 25 8a 0a 23 00    	jmpq   *0x230a8a(%rip)        # 633350 <_GLOBAL_OFFSET_TABLE_+0x118>
  4028c6:	68 20 00 00 00       	pushq  $0x20
  4028cb:	e9 e0 fd ff ff       	jmpq   4026b0 <_init+0x30>

00000000004028d0 <atof@plt>:
  4028d0:	ff 25 82 0a 23 00    	jmpq   *0x230a82(%rip)        # 633358 <_GLOBAL_OFFSET_TABLE_+0x120>
  4028d6:	68 21 00 00 00       	pushq  $0x21
  4028db:	e9 d0 fd ff ff       	jmpq   4026b0 <_init+0x30>

00000000004028e0 <_ZStlsISt11char_traitsIcEERSt13basic_ostreamIcT_ES5_PKc@plt>:
  4028e0:	ff 25 7a 0a 23 00    	jmpq   *0x230a7a(%rip)        # 633360 <_GLOBAL_OFFSET_TABLE_+0x128>
  4028e6:	68 22 00 00 00       	pushq  $0x22
  4028eb:	e9 c0 fd ff ff       	jmpq   4026b0 <_init+0x30>

00000000004028f0 <_ZNSo5writeEPKcl@plt>:
  4028f0:	ff 25 72 0a 23 00    	jmpq   *0x230a72(%rip)        # 633368 <_GLOBAL_OFFSET_TABLE_+0x130>
  4028f6:	68 23 00 00 00       	pushq  $0x23
  4028fb:	e9 b0 fd ff ff       	jmpq   4026b0 <_init+0x30>

0000000000402900 <_ZNSsD1Ev@plt>:
  402900:	ff 25 6a 0a 23 00    	jmpq   *0x230a6a(%rip)        # 633370 <_GLOBAL_OFFSET_TABLE_+0x138>
  402906:	68 24 00 00 00       	pushq  $0x24
  40290b:	e9 a0 fd ff ff       	jmpq   4026b0 <_init+0x30>

0000000000402910 <free@plt>:
  402910:	ff 25 62 0a 23 00    	jmpq   *0x230a62(%rip)        # 633378 <_GLOBAL_OFFSET_TABLE_+0x140>
  402916:	68 25 00 00 00       	pushq  $0x25
  40291b:	e9 90 fd ff ff       	jmpq   4026b0 <_init+0x30>

0000000000402920 <__xstat@plt>:
  402920:	ff 25 5a 0a 23 00    	jmpq   *0x230a5a(%rip)        # 633380 <_GLOBAL_OFFSET_TABLE_+0x148>
  402926:	68 26 00 00 00       	pushq  $0x26
  40292b:	e9 80 fd ff ff       	jmpq   4026b0 <_init+0x30>

0000000000402930 <_ZNKSt9basic_iosIcSt11char_traitsIcEEntEv@plt>:
  402930:	ff 25 52 0a 23 00    	jmpq   *0x230a52(%rip)        # 633388 <_GLOBAL_OFFSET_TABLE_+0x150>
  402936:	68 27 00 00 00       	pushq  $0x27
  40293b:	e9 70 fd ff ff       	jmpq   4026b0 <_init+0x30>

0000000000402940 <_ZNSs3endEv@plt>:
  402940:	ff 25 4a 0a 23 00    	jmpq   *0x230a4a(%rip)        # 633390 <_GLOBAL_OFFSET_TABLE_+0x158>
  402946:	68 28 00 00 00       	pushq  $0x28
  40294b:	e9 60 fd ff ff       	jmpq   4026b0 <_init+0x30>

0000000000402950 <__cxa_guard_release@plt>:
  402950:	ff 25 42 0a 23 00    	jmpq   *0x230a42(%rip)        # 633398 <_GLOBAL_OFFSET_TABLE_+0x160>
  402956:	68 29 00 00 00       	pushq  $0x29
  40295b:	e9 50 fd ff ff       	jmpq   4026b0 <_init+0x30>

0000000000402960 <floorf@plt>:
  402960:	ff 25 3a 0a 23 00    	jmpq   *0x230a3a(%rip)        # 6333a0 <_GLOBAL_OFFSET_TABLE_+0x168>
  402966:	68 2a 00 00 00       	pushq  $0x2a
  40296b:	e9 40 fd ff ff       	jmpq   4026b0 <_init+0x30>

0000000000402970 <_ZNSolsEb@plt>:
  402970:	ff 25 32 0a 23 00    	jmpq   *0x230a32(%rip)        # 6333a8 <_GLOBAL_OFFSET_TABLE_+0x170>
  402976:	68 2b 00 00 00       	pushq  $0x2b
  40297b:	e9 30 fd ff ff       	jmpq   4026b0 <_init+0x30>

0000000000402980 <_ZNSt14basic_ifstreamIcSt11char_traitsIcEEC1Ev@plt>:
  402980:	ff 25 2a 0a 23 00    	jmpq   *0x230a2a(%rip)        # 6333b0 <_GLOBAL_OFFSET_TABLE_+0x178>
  402986:	68 2c 00 00 00       	pushq  $0x2c
  40298b:	e9 20 fd ff ff       	jmpq   4026b0 <_init+0x30>

0000000000402990 <pow@plt>:
  402990:	ff 25 22 0a 23 00    	jmpq   *0x230a22(%rip)        # 6333b8 <_GLOBAL_OFFSET_TABLE_+0x180>
  402996:	68 2d 00 00 00       	pushq  $0x2d
  40299b:	e9 10 fd ff ff       	jmpq   4026b0 <_init+0x30>

00000000004029a0 <_ZNKSs7compareEPKc@plt>:
  4029a0:	ff 25 1a 0a 23 00    	jmpq   *0x230a1a(%rip)        # 6333c0 <_GLOBAL_OFFSET_TABLE_+0x188>
  4029a6:	68 2e 00 00 00       	pushq  $0x2e
  4029ab:	e9 00 fd ff ff       	jmpq   4026b0 <_init+0x30>

00000000004029b0 <_ZNSsC1EPKcRKSaIcE@plt>:
  4029b0:	ff 25 12 0a 23 00    	jmpq   *0x230a12(%rip)        # 6333c8 <_GLOBAL_OFFSET_TABLE_+0x190>
  4029b6:	68 2f 00 00 00       	pushq  $0x2f
  4029bb:	e9 f0 fc ff ff       	jmpq   4026b0 <_init+0x30>

00000000004029c0 <usleep@plt>:
  4029c0:	ff 25 0a 0a 23 00    	jmpq   *0x230a0a(%rip)        # 6333d0 <_GLOBAL_OFFSET_TABLE_+0x198>
  4029c6:	68 30 00 00 00       	pushq  $0x30
  4029cb:	e9 e0 fc ff ff       	jmpq   4026b0 <_init+0x30>

00000000004029d0 <_ZNSt14basic_ifstreamIcSt11char_traitsIcEED1Ev@plt>:
  4029d0:	ff 25 02 0a 23 00    	jmpq   *0x230a02(%rip)        # 6333d8 <_GLOBAL_OFFSET_TABLE_+0x1a0>
  4029d6:	68 31 00 00 00       	pushq  $0x31
  4029db:	e9 d0 fc ff ff       	jmpq   4026b0 <_init+0x30>

00000000004029e0 <rewind@plt>:
  4029e0:	ff 25 fa 09 23 00    	jmpq   *0x2309fa(%rip)        # 6333e0 <_GLOBAL_OFFSET_TABLE_+0x1a8>
  4029e6:	68 32 00 00 00       	pushq  $0x32
  4029eb:	e9 c0 fc ff ff       	jmpq   4026b0 <_init+0x30>

00000000004029f0 <atoi@plt>:
  4029f0:	ff 25 f2 09 23 00    	jmpq   *0x2309f2(%rip)        # 6333e8 <_GLOBAL_OFFSET_TABLE_+0x1b0>
  4029f6:	68 33 00 00 00       	pushq  $0x33
  4029fb:	e9 b0 fc ff ff       	jmpq   4026b0 <_init+0x30>

0000000000402a00 <_ZNSt14basic_ofstreamIcSt11char_traitsIcEED1Ev@plt>:
  402a00:	ff 25 ea 09 23 00    	jmpq   *0x2309ea(%rip)        # 6333f0 <_GLOBAL_OFFSET_TABLE_+0x1b8>
  402a06:	68 34 00 00 00       	pushq  $0x34
  402a0b:	e9 a0 fc ff ff       	jmpq   4026b0 <_init+0x30>

0000000000402a10 <_ZNSolsEj@plt>:
  402a10:	ff 25 e2 09 23 00    	jmpq   *0x2309e2(%rip)        # 6333f8 <_GLOBAL_OFFSET_TABLE_+0x1c0>
  402a16:	68 35 00 00 00       	pushq  $0x35
  402a1b:	e9 90 fc ff ff       	jmpq   4026b0 <_init+0x30>

0000000000402a20 <_ZNKSt9basic_iosIcSt11char_traitsIcEE4goodEv@plt>:
  402a20:	ff 25 da 09 23 00    	jmpq   *0x2309da(%rip)        # 633400 <_GLOBAL_OFFSET_TABLE_+0x1c8>
  402a26:	68 36 00 00 00       	pushq  $0x36
  402a2b:	e9 80 fc ff ff       	jmpq   4026b0 <_init+0x30>

0000000000402a30 <__cxa_pure_virtual@plt>:
  402a30:	ff 25 d2 09 23 00    	jmpq   *0x2309d2(%rip)        # 633408 <_GLOBAL_OFFSET_TABLE_+0x1d0>
  402a36:	68 37 00 00 00       	pushq  $0x37
  402a3b:	e9 70 fc ff ff       	jmpq   4026b0 <_init+0x30>

0000000000402a40 <_ZNSt14basic_ofstreamIcSt11char_traitsIcEE5closeEv@plt>:
  402a40:	ff 25 ca 09 23 00    	jmpq   *0x2309ca(%rip)        # 633410 <_GLOBAL_OFFSET_TABLE_+0x1d8>
  402a46:	68 38 00 00 00       	pushq  $0x38
  402a4b:	e9 60 fc ff ff       	jmpq   4026b0 <_init+0x30>

0000000000402a50 <_ZNSt19basic_istringstreamIcSt11char_traitsIcESaIcEED1Ev@plt>:
  402a50:	ff 25 c2 09 23 00    	jmpq   *0x2309c2(%rip)        # 633418 <_GLOBAL_OFFSET_TABLE_+0x1e0>
  402a56:	68 39 00 00 00       	pushq  $0x39
  402a5b:	e9 50 fc ff ff       	jmpq   4026b0 <_init+0x30>

0000000000402a60 <memmove@plt>:
  402a60:	ff 25 ba 09 23 00    	jmpq   *0x2309ba(%rip)        # 633420 <_GLOBAL_OFFSET_TABLE_+0x1e8>
  402a66:	68 3a 00 00 00       	pushq  $0x3a
  402a6b:	e9 40 fc ff ff       	jmpq   4026b0 <_init+0x30>

0000000000402a70 <expf@plt>:
  402a70:	ff 25 b2 09 23 00    	jmpq   *0x2309b2(%rip)        # 633428 <_GLOBAL_OFFSET_TABLE_+0x1f0>
  402a76:	68 3b 00 00 00       	pushq  $0x3b
  402a7b:	e9 30 fc ff ff       	jmpq   4026b0 <_init+0x30>

0000000000402a80 <getopt_long@plt>:
  402a80:	ff 25 aa 09 23 00    	jmpq   *0x2309aa(%rip)        # 633430 <_GLOBAL_OFFSET_TABLE_+0x1f8>
  402a86:	68 3c 00 00 00       	pushq  $0x3c
  402a8b:	e9 20 fc ff ff       	jmpq   4026b0 <_init+0x30>

0000000000402a90 <fread@plt>:
  402a90:	ff 25 a2 09 23 00    	jmpq   *0x2309a2(%rip)        # 633438 <_GLOBAL_OFFSET_TABLE_+0x200>
  402a96:	68 3d 00 00 00       	pushq  $0x3d
  402a9b:	e9 10 fc ff ff       	jmpq   4026b0 <_init+0x30>

0000000000402aa0 <getenv@plt>:
  402aa0:	ff 25 9a 09 23 00    	jmpq   *0x23099a(%rip)        # 633440 <_GLOBAL_OFFSET_TABLE_+0x208>
  402aa6:	68 3e 00 00 00       	pushq  $0x3e
  402aab:	e9 00 fc ff ff       	jmpq   4026b0 <_init+0x30>

0000000000402ab0 <_ZNSt14basic_ifstreamIcSt11char_traitsIcEE4openEPKcSt13_Ios_Openmode@plt>:
  402ab0:	ff 25 92 09 23 00    	jmpq   *0x230992(%rip)        # 633448 <_GLOBAL_OFFSET_TABLE_+0x210>
  402ab6:	68 3f 00 00 00       	pushq  $0x3f
  402abb:	e9 f0 fb ff ff       	jmpq   4026b0 <_init+0x30>

0000000000402ac0 <_ZStlsIcSt11char_traitsIcESaIcEERSt13basic_ostreamIT_T0_ES7_RKSbIS4_S5_T1_E@plt>:
  402ac0:	ff 25 8a 09 23 00    	jmpq   *0x23098a(%rip)        # 633450 <_GLOBAL_OFFSET_TABLE_+0x218>
  402ac6:	68 40 00 00 00       	pushq  $0x40
  402acb:	e9 e0 fb ff ff       	jmpq   4026b0 <_init+0x30>

0000000000402ad0 <_ZNSt14basic_ofstreamIcSt11char_traitsIcEE4openEPKcSt13_Ios_Openmode@plt>:
  402ad0:	ff 25 82 09 23 00    	jmpq   *0x230982(%rip)        # 633458 <_GLOBAL_OFFSET_TABLE_+0x220>
  402ad6:	68 41 00 00 00       	pushq  $0x41
  402adb:	e9 d0 fb ff ff       	jmpq   4026b0 <_init+0x30>

0000000000402ae0 <_ZNSt19basic_ostringstreamIcSt11char_traitsIcESaIcEED1Ev@plt>:
  402ae0:	ff 25 7a 09 23 00    	jmpq   *0x23097a(%rip)        # 633460 <_GLOBAL_OFFSET_TABLE_+0x228>
  402ae6:	68 42 00 00 00       	pushq  $0x42
  402aeb:	e9 c0 fb ff ff       	jmpq   4026b0 <_init+0x30>

0000000000402af0 <tolower@plt>:
  402af0:	ff 25 72 09 23 00    	jmpq   *0x230972(%rip)        # 633468 <_GLOBAL_OFFSET_TABLE_+0x230>
  402af6:	68 43 00 00 00       	pushq  $0x43
  402afb:	e9 b0 fb ff ff       	jmpq   4026b0 <_init+0x30>

0000000000402b00 <__cxa_allocate_exception@plt>:
  402b00:	ff 25 6a 09 23 00    	jmpq   *0x23096a(%rip)        # 633470 <_GLOBAL_OFFSET_TABLE_+0x238>
  402b06:	68 44 00 00 00       	pushq  $0x44
  402b0b:	e9 a0 fb ff ff       	jmpq   4026b0 <_init+0x30>

0000000000402b10 <_ZNSaIcED1Ev@plt>:
  402b10:	ff 25 62 09 23 00    	jmpq   *0x230962(%rip)        # 633478 <_GLOBAL_OFFSET_TABLE_+0x240>
  402b16:	68 45 00 00 00       	pushq  $0x45
  402b1b:	e9 90 fb ff ff       	jmpq   4026b0 <_init+0x30>

0000000000402b20 <_ZNSs6appendEPKc@plt>:
  402b20:	ff 25 5a 09 23 00    	jmpq   *0x23095a(%rip)        # 633480 <_GLOBAL_OFFSET_TABLE_+0x248>
  402b26:	68 46 00 00 00       	pushq  $0x46
  402b2b:	e9 80 fb ff ff       	jmpq   4026b0 <_init+0x30>

0000000000402b30 <calloc@plt>:
  402b30:	ff 25 52 09 23 00    	jmpq   *0x230952(%rip)        # 633488 <_GLOBAL_OFFSET_TABLE_+0x250>
  402b36:	68 47 00 00 00       	pushq  $0x47
  402b3b:	e9 70 fb ff ff       	jmpq   4026b0 <_init+0x30>

0000000000402b40 <_ZNSolsEf@plt>:
  402b40:	ff 25 4a 09 23 00    	jmpq   *0x23094a(%rip)        # 633490 <_GLOBAL_OFFSET_TABLE_+0x258>
  402b46:	68 48 00 00 00       	pushq  $0x48
  402b4b:	e9 60 fb ff ff       	jmpq   4026b0 <_init+0x30>

0000000000402b50 <_ZNSt14basic_ifstreamIcSt11char_traitsIcEEC1EPKcSt13_Ios_Openmode@plt>:
  402b50:	ff 25 42 09 23 00    	jmpq   *0x230942(%rip)        # 633498 <_GLOBAL_OFFSET_TABLE_+0x260>
  402b56:	68 49 00 00 00       	pushq  $0x49
  402b5b:	e9 50 fb ff ff       	jmpq   4026b0 <_init+0x30>

0000000000402b60 <__cxa_throw@plt>:
  402b60:	ff 25 3a 09 23 00    	jmpq   *0x23093a(%rip)        # 6334a0 <_GLOBAL_OFFSET_TABLE_+0x268>
  402b66:	68 4a 00 00 00       	pushq  $0x4a
  402b6b:	e9 40 fb ff ff       	jmpq   4026b0 <_init+0x30>

0000000000402b70 <_ZNSolsEPFRSoS_E@plt>:
  402b70:	ff 25 32 09 23 00    	jmpq   *0x230932(%rip)        # 6334a8 <_GLOBAL_OFFSET_TABLE_+0x270>
  402b76:	68 4b 00 00 00       	pushq  $0x4b
  402b7b:	e9 30 fb ff ff       	jmpq   4026b0 <_init+0x30>

0000000000402b80 <__lxstat@plt>:
  402b80:	ff 25 2a 09 23 00    	jmpq   *0x23092a(%rip)        # 6334b0 <_GLOBAL_OFFSET_TABLE_+0x278>
  402b86:	68 4c 00 00 00       	pushq  $0x4c
  402b8b:	e9 20 fb ff ff       	jmpq   4026b0 <_init+0x30>

0000000000402b90 <_ZNSt19basic_istringstreamIcSt11char_traitsIcESaIcEEC1ERKSsSt13_Ios_Openmode@plt>:
  402b90:	ff 25 22 09 23 00    	jmpq   *0x230922(%rip)        # 6334b8 <_GLOBAL_OFFSET_TABLE_+0x280>
  402b96:	68 4d 00 00 00       	pushq  $0x4d
  402b9b:	e9 10 fb ff ff       	jmpq   4026b0 <_init+0x30>

0000000000402ba0 <_ZNSt14basic_ofstreamIcSt11char_traitsIcEEC1Ev@plt>:
  402ba0:	ff 25 1a 09 23 00    	jmpq   *0x23091a(%rip)        # 6334c0 <_GLOBAL_OFFSET_TABLE_+0x288>
  402ba6:	68 4e 00 00 00       	pushq  $0x4e
  402bab:	e9 00 fb ff ff       	jmpq   4026b0 <_init+0x30>

0000000000402bb0 <__cxa_end_catch@plt>:
  402bb0:	ff 25 12 09 23 00    	jmpq   *0x230912(%rip)        # 6334c8 <_GLOBAL_OFFSET_TABLE_+0x290>
  402bb6:	68 4f 00 00 00       	pushq  $0x4f
  402bbb:	e9 f0 fa ff ff       	jmpq   4026b0 <_init+0x30>

0000000000402bc0 <_ZSt17__throw_bad_allocv@plt>:
  402bc0:	ff 25 0a 09 23 00    	jmpq   *0x23090a(%rip)        # 6334d0 <_GLOBAL_OFFSET_TABLE_+0x298>
  402bc6:	68 50 00 00 00       	pushq  $0x50
  402bcb:	e9 e0 fa ff ff       	jmpq   4026b0 <_init+0x30>

0000000000402bd0 <_ZSt4endlIcSt11char_traitsIcEERSt13basic_ostreamIT_T0_ES6_@plt>:
  402bd0:	ff 25 02 09 23 00    	jmpq   *0x230902(%rip)        # 6334d8 <_GLOBAL_OFFSET_TABLE_+0x2a0>
  402bd6:	68 51 00 00 00       	pushq  $0x51
  402bdb:	e9 d0 fa ff ff       	jmpq   4026b0 <_init+0x30>

0000000000402be0 <__cxa_guard_abort@plt>:
  402be0:	ff 25 fa 08 23 00    	jmpq   *0x2308fa(%rip)        # 6334e0 <_GLOBAL_OFFSET_TABLE_+0x2a8>
  402be6:	68 52 00 00 00       	pushq  $0x52
  402beb:	e9 c0 fa ff ff       	jmpq   4026b0 <_init+0x30>

0000000000402bf0 <__cxa_begin_catch@plt>:
  402bf0:	ff 25 f2 08 23 00    	jmpq   *0x2308f2(%rip)        # 6334e8 <_GLOBAL_OFFSET_TABLE_+0x2b0>
  402bf6:	68 53 00 00 00       	pushq  $0x53
  402bfb:	e9 b0 fa ff ff       	jmpq   4026b0 <_init+0x30>

0000000000402c00 <_ZNSt18basic_stringstreamIcSt11char_traitsIcESaIcEED1Ev@plt>:
  402c00:	ff 25 ea 08 23 00    	jmpq   *0x2308ea(%rip)        # 6334f0 <_GLOBAL_OFFSET_TABLE_+0x2b8>
  402c06:	68 54 00 00 00       	pushq  $0x54
  402c0b:	e9 a0 fa ff ff       	jmpq   4026b0 <_init+0x30>

0000000000402c10 <_ZNSaIcEC1Ev@plt>:
  402c10:	ff 25 e2 08 23 00    	jmpq   *0x2308e2(%rip)        # 6334f8 <_GLOBAL_OFFSET_TABLE_+0x2c0>
  402c16:	68 55 00 00 00       	pushq  $0x55
  402c1b:	e9 90 fa ff ff       	jmpq   4026b0 <_init+0x30>

0000000000402c20 <__gxx_personality_v0@plt>:
  402c20:	ff 25 da 08 23 00    	jmpq   *0x2308da(%rip)        # 633500 <_GLOBAL_OFFSET_TABLE_+0x2c8>
  402c26:	68 56 00 00 00       	pushq  $0x56
  402c2b:	e9 80 fa ff ff       	jmpq   4026b0 <_init+0x30>

0000000000402c30 <_ZNSt19basic_ostringstreamIcSt11char_traitsIcESaIcEEC1ESt13_Ios_Openmode@plt>:
  402c30:	ff 25 d2 08 23 00    	jmpq   *0x2308d2(%rip)        # 633508 <_GLOBAL_OFFSET_TABLE_+0x2d0>
  402c36:	68 57 00 00 00       	pushq  $0x57
  402c3b:	e9 70 fa ff ff       	jmpq   4026b0 <_init+0x30>

0000000000402c40 <_ZNSs5beginEv@plt>:
  402c40:	ff 25 ca 08 23 00    	jmpq   *0x2308ca(%rip)        # 633510 <_GLOBAL_OFFSET_TABLE_+0x2d8>
  402c46:	68 58 00 00 00       	pushq  $0x58
  402c4b:	e9 60 fa ff ff       	jmpq   4026b0 <_init+0x30>

0000000000402c50 <_Znwm@plt>:
  402c50:	ff 25 c2 08 23 00    	jmpq   *0x2308c2(%rip)        # 633518 <_GLOBAL_OFFSET_TABLE_+0x2e0>
  402c56:	68 59 00 00 00       	pushq  $0x59
  402c5b:	e9 50 fa ff ff       	jmpq   4026b0 <_init+0x30>

0000000000402c60 <_Unwind_Resume@plt>:
  402c60:	ff 25 ba 08 23 00    	jmpq   *0x2308ba(%rip)        # 633520 <_GLOBAL_OFFSET_TABLE_+0x2e8>
  402c66:	68 5a 00 00 00       	pushq  $0x5a
  402c6b:	e9 40 fa ff ff       	jmpq   4026b0 <_init+0x30>

0000000000402c70 <sqrt@plt>:
  402c70:	ff 25 b2 08 23 00    	jmpq   *0x2308b2(%rip)        # 633528 <_GLOBAL_OFFSET_TABLE_+0x2f0>
  402c76:	68 5b 00 00 00       	pushq  $0x5b
  402c7b:	e9 30 fa ff ff       	jmpq   4026b0 <_init+0x30>

0000000000402c80 <_ZNSsaSERKSs@plt>:
  402c80:	ff 25 aa 08 23 00    	jmpq   *0x2308aa(%rip)        # 633530 <_GLOBAL_OFFSET_TABLE_+0x2f8>
  402c86:	68 5c 00 00 00       	pushq  $0x5c
  402c8b:	e9 20 fa ff ff       	jmpq   4026b0 <_init+0x30>

0000000000402c90 <_ZNSs6appendERKSs@plt>:
  402c90:	ff 25 a2 08 23 00    	jmpq   *0x2308a2(%rip)        # 633538 <_GLOBAL_OFFSET_TABLE_+0x300>
  402c96:	68 5d 00 00 00       	pushq  $0x5d
  402c9b:	e9 10 fa ff ff       	jmpq   4026b0 <_init+0x30>

0000000000402ca0 <sin@plt>:
  402ca0:	ff 25 9a 08 23 00    	jmpq   *0x23089a(%rip)        # 633540 <_GLOBAL_OFFSET_TABLE_+0x308>
  402ca6:	68 5e 00 00 00       	pushq  $0x5e
  402cab:	e9 00 fa ff ff       	jmpq   4026b0 <_init+0x30>

0000000000402cb0 <_ZStlsIcSt11char_traitsIcEERSt13basic_ostreamIT_T0_ES6_St5_Setw@plt>:
  402cb0:	ff 25 92 08 23 00    	jmpq   *0x230892(%rip)        # 633548 <_GLOBAL_OFFSET_TABLE_+0x310>
  402cb6:	68 5f 00 00 00       	pushq  $0x5f
  402cbb:	e9 f0 f9 ff ff       	jmpq   4026b0 <_init+0x30>

0000000000402cc0 <_ZStlsIcSt11char_traitsIcEERSt13basic_ostreamIT_T0_ES6_St8_SetfillIS3_E@plt>:
  402cc0:	ff 25 8a 08 23 00    	jmpq   *0x23088a(%rip)        # 633550 <_GLOBAL_OFFSET_TABLE_+0x318>
  402cc6:	68 60 00 00 00       	pushq  $0x60
  402ccb:	e9 e0 f9 ff ff       	jmpq   4026b0 <_init+0x30>

0000000000402cd0 <sqrtf@plt>:
  402cd0:	ff 25 82 08 23 00    	jmpq   *0x230882(%rip)        # 633558 <_GLOBAL_OFFSET_TABLE_+0x320>
  402cd6:	68 61 00 00 00       	pushq  $0x61
  402cdb:	e9 d0 f9 ff ff       	jmpq   4026b0 <_init+0x30>

0000000000402ce0 <_ZNSirsERf@plt>:
  402ce0:	ff 25 7a 08 23 00    	jmpq   *0x23087a(%rip)        # 633560 <_GLOBAL_OFFSET_TABLE_+0x328>
  402ce6:	68 62 00 00 00       	pushq  $0x62
  402ceb:	e9 c0 f9 ff ff       	jmpq   4026b0 <_init+0x30>

Disassembly of section .text:

0000000000402cf0 <_start>:
  402cf0:	31 ed                	xor    %ebp,%ebp
  402cf2:	49 89 d1             	mov    %rdx,%r9
  402cf5:	5e                   	pop    %rsi
  402cf6:	48 89 e2             	mov    %rsp,%rdx
  402cf9:	48 83 e4 f0          	and    $0xfffffffffffffff0,%rsp
  402cfd:	50                   	push   %rax
  402cfe:	54                   	push   %rsp
  402cff:	49 c7 c0 50 58 42 00 	mov    $0x425850,%r8
  402d06:	48 c7 c1 e0 57 42 00 	mov    $0x4257e0,%rcx
  402d0d:	48 c7 c7 20 68 40 00 	mov    $0x406820,%rdi
  402d14:	e8 37 fb ff ff       	callq  402850 <__libc_start_main@plt>
  402d19:	f4                   	hlt    
  402d1a:	66 0f 1f 44 00 00    	nopw   0x0(%rax,%rax,1)

0000000000402d20 <__do_global_dtors_aux>:
  402d20:	55                   	push   %rbp
  402d21:	48 89 e5             	mov    %rsp,%rbp
  402d24:	53                   	push   %rbx
  402d25:	48 83 ec 08          	sub    $0x8,%rsp
  402d29:	80 3d 08 12 23 00 00 	cmpb   $0x0,0x231208(%rip)        # 633f38 <completed.6296>
  402d30:	75 4b                	jne    402d7d <__do_global_dtors_aux+0x5d>
  402d32:	bb 30 30 63 00       	mov    $0x633030,%ebx
  402d37:	48 8b 05 02 12 23 00 	mov    0x231202(%rip),%rax        # 633f40 <dtor_idx.6298>
  402d3e:	48 81 eb 28 30 63 00 	sub    $0x633028,%rbx
  402d45:	48 c1 fb 03          	sar    $0x3,%rbx
  402d49:	48 83 eb 01          	sub    $0x1,%rbx
  402d4d:	48 39 d8             	cmp    %rbx,%rax
  402d50:	73 24                	jae    402d76 <__do_global_dtors_aux+0x56>
  402d52:	66 0f 1f 44 00 00    	nopw   0x0(%rax,%rax,1)
  402d58:	48 83 c0 01          	add    $0x1,%rax
  402d5c:	48 89 05 dd 11 23 00 	mov    %rax,0x2311dd(%rip)        # 633f40 <dtor_idx.6298>
  402d63:	ff 14 c5 28 30 63 00 	callq  *0x633028(,%rax,8)
  402d6a:	48 8b 05 cf 11 23 00 	mov    0x2311cf(%rip),%rax        # 633f40 <dtor_idx.6298>
  402d71:	48 39 d8             	cmp    %rbx,%rax
  402d74:	72 e2                	jb     402d58 <__do_global_dtors_aux+0x38>
  402d76:	c6 05 bb 11 23 00 01 	movb   $0x1,0x2311bb(%rip)        # 633f38 <completed.6296>
  402d7d:	48 83 c4 08          	add    $0x8,%rsp
  402d81:	5b                   	pop    %rbx
  402d82:	c9                   	leaveq 
  402d83:	c3                   	retq   
  402d84:	66 66 66 2e 0f 1f 84 	data16 data16 nopw %cs:0x0(%rax,%rax,1)
  402d8b:	00 00 00 00 00 

0000000000402d90 <frame_dummy>:
  402d90:	55                   	push   %rbp
  402d91:	48 83 3d 9f 02 23 00 	cmpq   $0x0,0x23029f(%rip)        # 633038 <__JCR_END__>
  402d98:	00 
  402d99:	48 89 e5             	mov    %rsp,%rbp
  402d9c:	74 12                	je     402db0 <frame_dummy+0x20>
  402d9e:	b8 00 00 00 00       	mov    $0x0,%eax
  402da3:	48 85 c0             	test   %rax,%rax
  402da6:	74 08                	je     402db0 <frame_dummy+0x20>
  402da8:	bf 38 30 63 00       	mov    $0x633038,%edi
  402dad:	c9                   	leaveq 
  402dae:	ff e0                	jmpq   *%rax
  402db0:	c9                   	leaveq 
  402db1:	c3                   	retq   

0000000000402db2 <_Z5splitRKSscRSt6vectorISsSaISsEE>:
  402db2:	55                   	push   %rbp
  402db3:	48 89 e5             	mov    %rsp,%rbp
  402db6:	41 54                	push   %r12
  402db8:	53                   	push   %rbx
  402db9:	48 81 ec a0 01 00 00 	sub    $0x1a0,%rsp
  402dc0:	48 89 bd 68 fe ff ff 	mov    %rdi,-0x198(%rbp)
  402dc7:	89 f0                	mov    %esi,%eax
  402dc9:	48 89 95 58 fe ff ff 	mov    %rdx,-0x1a8(%rbp)
  402dd0:	88 85 64 fe ff ff    	mov    %al,-0x19c(%rbp)
  402dd6:	be 08 00 00 00       	mov    $0x8,%esi
  402ddb:	bf 10 00 00 00       	mov    $0x10,%edi
  402de0:	e8 5c 19 00 00       	callq  404741 <_ZStorSt13_Ios_OpenmodeS_>
  402de5:	89 c2                	mov    %eax,%edx
  402de7:	48 8b 8d 68 fe ff ff 	mov    -0x198(%rbp),%rcx
  402dee:	48 8d 85 70 fe ff ff 	lea    -0x190(%rbp),%rax
  402df5:	48 89 ce             	mov    %rcx,%rsi
  402df8:	48 89 c7             	mov    %rax,%rdi
  402dfb:	e8 20 f9 ff ff       	callq  402720 <_ZNSt18basic_stringstreamIcSt11char_traitsIcESaIcEEC1ERKSsSt13_Ios_Openmode@plt>
  402e00:	48 8d 45 e0          	lea    -0x20(%rbp),%rax
  402e04:	48 89 c7             	mov    %rax,%rdi
  402e07:	e8 04 f9 ff ff       	callq  402710 <_ZNSsC1Ev@plt>
  402e0c:	eb 16                	jmp    402e24 <_Z5splitRKSscRSt6vectorISsSaISsEE+0x72>
  402e0e:	48 8d 55 e0          	lea    -0x20(%rbp),%rdx
  402e12:	48 8b 85 58 fe ff ff 	mov    -0x1a8(%rbp),%rax
  402e19:	48 89 d6             	mov    %rdx,%rsi
  402e1c:	48 89 c7             	mov    %rax,%rdi
  402e1f:	e8 3c 2b 00 00       	callq  405960 <_ZNSt6vectorISsSaISsEE9push_backERKSs>
  402e24:	0f be 95 64 fe ff ff 	movsbl -0x19c(%rbp),%edx
  402e2b:	48 8d 4d e0          	lea    -0x20(%rbp),%rcx
  402e2f:	48 8d 85 70 fe ff ff 	lea    -0x190(%rbp),%rax
  402e36:	48 89 ce             	mov    %rcx,%rsi
  402e39:	48 89 c7             	mov    %rax,%rdi
  402e3c:	e8 8f f8 ff ff       	callq  4026d0 <_ZSt7getlineIcSt11char_traitsIcESaIcEERSt13basic_istreamIT_T0_ES7_RSbIS4_S5_T1_ES4_@plt>
  402e41:	48 89 c2             	mov    %rax,%rdx
  402e44:	48 8b 00             	mov    (%rax),%rax
  402e47:	48 83 e8 18          	sub    $0x18,%rax
  402e4b:	48 8b 00             	mov    (%rax),%rax
  402e4e:	48 8d 04 02          	lea    (%rdx,%rax,1),%rax
  402e52:	48 89 c7             	mov    %rax,%rdi
  402e55:	e8 f6 f8 ff ff       	callq  402750 <_ZNKSt9basic_iosIcSt11char_traitsIcEEcvPvEv@plt>
  402e5a:	48 85 c0             	test   %rax,%rax
  402e5d:	0f 95 c0             	setne  %al
  402e60:	84 c0                	test   %al,%al
  402e62:	75 aa                	jne    402e0e <_Z5splitRKSscRSt6vectorISsSaISsEE+0x5c>
  402e64:	48 8b 9d 58 fe ff ff 	mov    -0x1a8(%rbp),%rbx
  402e6b:	48 8d 45 e0          	lea    -0x20(%rbp),%rax
  402e6f:	48 89 c7             	mov    %rax,%rdi
  402e72:	e8 89 fa ff ff       	callq  402900 <_ZNSsD1Ev@plt>
  402e77:	eb 19                	jmp    402e92 <_Z5splitRKSscRSt6vectorISsSaISsEE+0xe0>
  402e79:	89 d3                	mov    %edx,%ebx
  402e7b:	49 89 c4             	mov    %rax,%r12
  402e7e:	48 8d 45 e0          	lea    -0x20(%rbp),%rax
  402e82:	48 89 c7             	mov    %rax,%rdi
  402e85:	e8 76 fa ff ff       	callq  402900 <_ZNSsD1Ev@plt>
  402e8a:	4c 89 e0             	mov    %r12,%rax
  402e8d:	48 63 d3             	movslq %ebx,%rdx
  402e90:	eb 1e                	jmp    402eb0 <_Z5splitRKSscRSt6vectorISsSaISsEE+0xfe>
  402e92:	48 8d 85 70 fe ff ff 	lea    -0x190(%rbp),%rax
  402e99:	48 89 c7             	mov    %rax,%rdi
  402e9c:	e8 5f fd ff ff       	callq  402c00 <_ZNSt18basic_stringstreamIcSt11char_traitsIcESaIcEED1Ev@plt>
  402ea1:	48 89 d8             	mov    %rbx,%rax
  402ea4:	48 81 c4 a0 01 00 00 	add    $0x1a0,%rsp
  402eab:	5b                   	pop    %rbx
  402eac:	41 5c                	pop    %r12
  402eae:	c9                   	leaveq 
  402eaf:	c3                   	retq   
  402eb0:	89 d3                	mov    %edx,%ebx
  402eb2:	49 89 c4             	mov    %rax,%r12
  402eb5:	48 8d 85 70 fe ff ff 	lea    -0x190(%rbp),%rax
  402ebc:	48 89 c7             	mov    %rax,%rdi
  402ebf:	e8 3c fd ff ff       	callq  402c00 <_ZNSt18basic_stringstreamIcSt11char_traitsIcESaIcEED1Ev@plt>
  402ec4:	4c 89 e0             	mov    %r12,%rax
  402ec7:	48 63 d3             	movslq %ebx,%rdx
  402eca:	48 89 c7             	mov    %rax,%rdi
  402ecd:	e8 8e fd ff ff       	callq  402c60 <_Unwind_Resume@plt>

0000000000402ed2 <_Z5splitRKSsc>:
  402ed2:	55                   	push   %rbp
  402ed3:	48 89 e5             	mov    %rsp,%rbp
  402ed6:	41 55                	push   %r13
  402ed8:	41 54                	push   %r12
  402eda:	53                   	push   %rbx
  402edb:	48 83 ec 38          	sub    $0x38,%rsp
  402edf:	48 89 fb             	mov    %rdi,%rbx
  402ee2:	48 89 75 b8          	mov    %rsi,-0x48(%rbp)
  402ee6:	89 d0                	mov    %edx,%eax
  402ee8:	88 45 b4             	mov    %al,-0x4c(%rbp)
  402eeb:	48 89 d8             	mov    %rbx,%rax
  402eee:	48 89 c7             	mov    %rax,%rdi
  402ef1:	e8 e4 2a 00 00       	callq  4059da <_ZNSt6vectorISsSaISsEEC1Ev>
  402ef6:	48 89 da             	mov    %rbx,%rdx
  402ef9:	0f be 4d b4          	movsbl -0x4c(%rbp),%ecx
  402efd:	48 8b 45 b8          	mov    -0x48(%rbp),%rax
  402f01:	89 ce                	mov    %ecx,%esi
  402f03:	48 89 c7             	mov    %rax,%rdi
  402f06:	e8 a7 fe ff ff       	callq  402db2 <_Z5splitRKSscRSt6vectorISsSaISsEE>
  402f0b:	eb 1f                	jmp    402f2c <_Z5splitRKSsc+0x5a>
  402f0d:	41 89 d4             	mov    %edx,%r12d
  402f10:	49 89 c5             	mov    %rax,%r13
  402f13:	48 89 d8             	mov    %rbx,%rax
  402f16:	48 89 c7             	mov    %rax,%rdi
  402f19:	e8 d6 2a 00 00       	callq  4059f4 <_ZNSt6vectorISsSaISsEED1Ev>
  402f1e:	4c 89 e8             	mov    %r13,%rax
  402f21:	49 63 d4             	movslq %r12d,%rdx
  402f24:	48 89 c7             	mov    %rax,%rdi
  402f27:	e8 34 fd ff ff       	callq  402c60 <_Unwind_Resume@plt>
  402f2c:	48 89 d8             	mov    %rbx,%rax
  402f2f:	48 89 d8             	mov    %rbx,%rax
  402f32:	48 83 c4 38          	add    $0x38,%rsp
  402f36:	5b                   	pop    %rbx
  402f37:	41 5c                	pop    %r12
  402f39:	41 5d                	pop    %r13
  402f3b:	c9                   	leaveq 
  402f3c:	c3                   	retq   

0000000000402f3d <_Z12createReaderP13ConfigurationSs>:
  402f3d:	55                   	push   %rbp
  402f3e:	48 89 e5             	mov    %rsp,%rbp
  402f41:	41 55                	push   %r13
  402f43:	41 54                	push   %r12
  402f45:	53                   	push   %rbx
  402f46:	48 81 ec a8 04 00 00 	sub    $0x4a8,%rsp
  402f4d:	48 89 bd 78 fb ff ff 	mov    %rdi,-0x488(%rbp)
  402f54:	48 89 b5 70 fb ff ff 	mov    %rsi,-0x490(%rbp)
  402f5b:	48 c7 45 d0 00 00 00 	movq   $0x0,-0x30(%rbp)
  402f62:	00 
  402f63:	48 8b 85 70 fb ff ff 	mov    -0x490(%rbp),%rax
  402f6a:	be 1d 5a 42 00       	mov    $0x425a1d,%esi
  402f6f:	48 89 c7             	mov    %rax,%rdi
  402f72:	e8 e9 2a 00 00       	callq  405a60 <_ZSteqIcSt11char_traitsIcESaIcEEbRKSbIT_T0_T1_EPKS3_>
  402f77:	84 c0                	test   %al,%al
  402f79:	74 1d                	je     402f98 <_Z12createReaderP13ConfigurationSs+0x5b>
  402f7b:	48 8b 85 78 fb ff ff 	mov    -0x488(%rbp),%rax
  402f82:	48 8d 50 58          	lea    0x58(%rax),%rdx
  402f86:	48 8b 85 70 fb ff ff 	mov    -0x490(%rbp),%rax
  402f8d:	48 89 d6             	mov    %rdx,%rsi
  402f90:	48 89 c7             	mov    %rax,%rdi
  402f93:	e8 e8 fc ff ff       	callq  402c80 <_ZNSsaSERKSs@plt>
  402f98:	bb 00 00 00 00       	mov    $0x0,%ebx
  402f9d:	48 8b 85 70 fb ff ff 	mov    -0x490(%rbp),%rax
  402fa4:	48 89 c7             	mov    %rax,%rdi
  402fa7:	e8 04 f9 ff ff       	callq  4028b0 <_ZNKSs6lengthEv@plt>
  402fac:	48 83 f8 04          	cmp    $0x4,%rax
  402fb0:	76 52                	jbe    403004 <_Z12createReaderP13ConfigurationSs+0xc7>
  402fb2:	48 8b 85 70 fb ff ff 	mov    -0x490(%rbp),%rax
  402fb9:	48 89 c7             	mov    %rax,%rdi
  402fbc:	e8 ef f8 ff ff       	callq  4028b0 <_ZNKSs6lengthEv@plt>
  402fc1:	48 8d 50 fc          	lea    -0x4(%rax),%rdx
  402fc5:	48 8d 85 40 ff ff ff 	lea    -0xc0(%rbp),%rax
  402fcc:	48 8b b5 70 fb ff ff 	mov    -0x490(%rbp),%rsi
  402fd3:	b9 04 00 00 00       	mov    $0x4,%ecx
  402fd8:	48 89 c7             	mov    %rax,%rdi
  402fdb:	e8 60 f7 ff ff       	callq  402740 <_ZNKSs6substrEmm@plt>
  402fe0:	bb 01 00 00 00       	mov    $0x1,%ebx
  402fe5:	48 8d 85 40 ff ff ff 	lea    -0xc0(%rbp),%rax
  402fec:	be 3c 5a 42 00       	mov    $0x425a3c,%esi
  402ff1:	48 89 c7             	mov    %rax,%rdi
  402ff4:	e8 67 2a 00 00       	callq  405a60 <_ZSteqIcSt11char_traitsIcESaIcEEbRKSbIT_T0_T1_EPKS3_>
  402ff9:	84 c0                	test   %al,%al
  402ffb:	74 07                	je     403004 <_Z12createReaderP13ConfigurationSs+0xc7>
  402ffd:	b8 01 00 00 00       	mov    $0x1,%eax
  403002:	eb 05                	jmp    403009 <_Z12createReaderP13ConfigurationSs+0xcc>
  403004:	b8 00 00 00 00       	mov    $0x0,%eax
  403009:	41 89 c4             	mov    %eax,%r12d
  40300c:	84 db                	test   %bl,%bl
  40300e:	75 29                	jne    403039 <_Z12createReaderP13ConfigurationSs+0xfc>
  403010:	eb 36                	jmp    403048 <_Z12createReaderP13ConfigurationSs+0x10b>
  403012:	41 89 d4             	mov    %edx,%r12d
  403015:	49 89 c5             	mov    %rax,%r13
  403018:	84 db                	test   %bl,%bl
  40301a:	74 0f                	je     40302b <_Z12createReaderP13ConfigurationSs+0xee>
  40301c:	48 8d 85 40 ff ff ff 	lea    -0xc0(%rbp),%rax
  403023:	48 89 c7             	mov    %rax,%rdi
  403026:	e8 d5 f8 ff ff       	callq  402900 <_ZNSsD1Ev@plt>
  40302b:	4c 89 e8             	mov    %r13,%rax
  40302e:	49 63 d4             	movslq %r12d,%rdx
  403031:	48 89 c7             	mov    %rax,%rdi
  403034:	e8 27 fc ff ff       	callq  402c60 <_Unwind_Resume@plt>
  403039:	48 8d 85 40 ff ff ff 	lea    -0xc0(%rbp),%rax
  403040:	48 89 c7             	mov    %rax,%rdi
  403043:	e8 b8 f8 ff ff       	callq  402900 <_ZNSsD1Ev@plt>
  403048:	45 84 e4             	test   %r12b,%r12b
  40304b:	0f 84 31 10 00 00    	je     404082 <_Z12createReaderP13ConfigurationSs+0x1145>
  403051:	be 48 5a 42 00       	mov    $0x425a48,%esi
  403056:	bf 20 3c 63 00       	mov    $0x633c20,%edi
  40305b:	e8 80 f8 ff ff       	callq  4028e0 <_ZStlsISt11char_traitsIcEERSt13basic_ostreamIcT_ES5_PKc@plt>
  403060:	48 8b 95 70 fb ff ff 	mov    -0x490(%rbp),%rdx
  403067:	48 89 d6             	mov    %rdx,%rsi
  40306a:	48 89 c7             	mov    %rax,%rdi
  40306d:	e8 4e fa ff ff       	callq  402ac0 <_ZStlsIcSt11char_traitsIcESaIcEERSt13basic_ostreamIT_T0_ES7_RKSbIS4_S5_T1_E@plt>
  403072:	be 71 5a 42 00       	mov    $0x425a71,%esi
  403077:	48 89 c7             	mov    %rax,%rdi
  40307a:	e8 61 f8 ff ff       	callq  4028e0 <_ZStlsISt11char_traitsIcEERSt13basic_ostreamIcT_ES5_PKc@plt>
  40307f:	c6 45 db 00          	movb   $0x0,-0x25(%rbp)
  403083:	48 8d 85 30 ff ff ff 	lea    -0xd0(%rbp),%rax
  40308a:	48 89 c7             	mov    %rax,%rdi
  40308d:	e8 7e f6 ff ff       	callq  402710 <_ZNSsC1Ev@plt>
  403092:	48 8b 85 70 fb ff ff 	mov    -0x490(%rbp),%rax
  403099:	48 89 c7             	mov    %rax,%rdi
  40309c:	e8 1f f7 ff ff       	callq  4027c0 <_ZNKSs5c_strEv@plt>
  4030a1:	48 89 c1             	mov    %rax,%rcx
  4030a4:	48 8d 85 80 fb ff ff 	lea    -0x480(%rbp),%rax
  4030ab:	ba 08 00 00 00       	mov    $0x8,%edx
  4030b0:	48 89 ce             	mov    %rcx,%rsi
  4030b3:	48 89 c7             	mov    %rax,%rdi
  4030b6:	e8 95 fa ff ff       	callq  402b50 <_ZNSt14basic_ifstreamIcSt11char_traitsIcEEC1EPKcSt13_Ios_Openmode@plt>
  4030bb:	48 8d 85 10 ff ff ff 	lea    -0xf0(%rbp),%rax
  4030c2:	48 8b 8d 70 fb ff ff 	mov    -0x490(%rbp),%rcx
  4030c9:	ba 2f 00 00 00       	mov    $0x2f,%edx
  4030ce:	48 89 ce             	mov    %rcx,%rsi
  4030d1:	48 89 c7             	mov    %rax,%rdi
  4030d4:	e8 f9 fd ff ff       	callq  402ed2 <_Z5splitRKSsc>
  4030d9:	48 8d 85 4f ff ff ff 	lea    -0xb1(%rbp),%rax
  4030e0:	48 89 c7             	mov    %rax,%rdi
  4030e3:	e8 28 fb ff ff       	callq  402c10 <_ZNSaIcEC1Ev@plt>
  4030e8:	48 8d 95 4f ff ff ff 	lea    -0xb1(%rbp),%rdx
  4030ef:	48 8d 85 00 ff ff ff 	lea    -0x100(%rbp),%rax
  4030f6:	be 1d 5a 42 00       	mov    $0x425a1d,%esi
  4030fb:	48 89 c7             	mov    %rax,%rdi
  4030fe:	e8 ad f8 ff ff       	callq  4029b0 <_ZNSsC1EPKcRKSaIcE@plt>
  403103:	48 8d 85 4f ff ff ff 	lea    -0xb1(%rbp),%rax
  40310a:	48 89 c7             	mov    %rax,%rdi
  40310d:	e8 fe f9 ff ff       	callq  402b10 <_ZNSaIcED1Ev@plt>
  403112:	48 8d 85 10 ff ff ff 	lea    -0xf0(%rbp),%rax
  403119:	48 89 c7             	mov    %rax,%rdi
  40311c:	e8 69 29 00 00       	callq  405a8a <_ZNKSt6vectorISsSaISsEE4sizeEv>
  403121:	48 83 f8 01          	cmp    $0x1,%rax
  403125:	0f 97 c0             	seta   %al
  403128:	84 c0                	test   %al,%al
  40312a:	0f 84 58 0e 00 00    	je     403f88 <_Z12createReaderP13ConfigurationSs+0x104b>
  403130:	eb 1f                	jmp    403151 <_Z12createReaderP13ConfigurationSs+0x214>
  403132:	89 d3                	mov    %edx,%ebx
  403134:	49 89 c4             	mov    %rax,%r12
  403137:	48 8d 85 4f ff ff ff 	lea    -0xb1(%rbp),%rax
  40313e:	48 89 c7             	mov    %rax,%rdi
  403141:	e8 ca f9 ff ff       	callq  402b10 <_ZNSaIcED1Ev@plt>
  403146:	4c 89 e0             	mov    %r12,%rax
  403149:	48 63 d3             	movslq %ebx,%rdx
  40314c:	e9 b5 0e 00 00       	jmpq   404006 <_Z12createReaderP13ConfigurationSs+0x10c9>
  403151:	c7 45 dc 00 00 00 00 	movl   $0x0,-0x24(%rbp)
  403158:	e9 cc 00 00 00       	jmpq   403229 <_Z12createReaderP13ConfigurationSs+0x2ec>
  40315d:	8b 45 dc             	mov    -0x24(%rbp),%eax
  403160:	48 63 d0             	movslq %eax,%rdx
  403163:	48 8d 85 10 ff ff ff 	lea    -0xf0(%rbp),%rax
  40316a:	48 89 d6             	mov    %rdx,%rsi
  40316d:	48 89 c7             	mov    %rax,%rdi
  403170:	e8 3f 29 00 00       	callq  405ab4 <_ZNSt6vectorISsSaISsEEixEm>
  403175:	48 89 c2             	mov    %rax,%rdx
  403178:	48 8d 85 60 ff ff ff 	lea    -0xa0(%rbp),%rax
  40317f:	48 8d 8d 00 ff ff ff 	lea    -0x100(%rbp),%rcx
  403186:	48 89 ce             	mov    %rcx,%rsi
  403189:	48 89 c7             	mov    %rax,%rdi
  40318c:	e8 4b 27 00 00       	callq  4058dc <_ZStplIcSt11char_traitsIcESaIcEESbIT_T0_T1_ERKS6_S8_>
  403191:	48 8d 85 50 ff ff ff 	lea    -0xb0(%rbp),%rax
  403198:	48 8d 8d 60 ff ff ff 	lea    -0xa0(%rbp),%rcx
  40319f:	ba 73 5a 42 00       	mov    $0x425a73,%edx
  4031a4:	48 89 ce             	mov    %rcx,%rsi
  4031a7:	48 89 c7             	mov    %rax,%rdi
  4031aa:	e8 25 29 00 00       	callq  405ad4 <_ZStplIcSt11char_traitsIcESaIcEESbIT_T0_T1_ERKS6_PKS3_>
  4031af:	48 8d 95 50 ff ff ff 	lea    -0xb0(%rbp),%rdx
  4031b6:	48 8d 85 00 ff ff ff 	lea    -0x100(%rbp),%rax
  4031bd:	48 89 d6             	mov    %rdx,%rsi
  4031c0:	48 89 c7             	mov    %rax,%rdi
  4031c3:	e8 b8 fa ff ff       	callq  402c80 <_ZNSsaSERKSs@plt>
  4031c8:	48 8d 85 50 ff ff ff 	lea    -0xb0(%rbp),%rax
  4031cf:	48 89 c7             	mov    %rax,%rdi
  4031d2:	e8 29 f7 ff ff       	callq  402900 <_ZNSsD1Ev@plt>
  4031d7:	eb 1c                	jmp    4031f5 <_Z12createReaderP13ConfigurationSs+0x2b8>
  4031d9:	89 d3                	mov    %edx,%ebx
  4031db:	49 89 c4             	mov    %rax,%r12
  4031de:	48 8d 85 50 ff ff ff 	lea    -0xb0(%rbp),%rax
  4031e5:	48 89 c7             	mov    %rax,%rdi
  4031e8:	e8 13 f7 ff ff       	callq  402900 <_ZNSsD1Ev@plt>
  4031ed:	4c 89 e0             	mov    %r12,%rax
  4031f0:	48 63 d3             	movslq %ebx,%rdx
  4031f3:	eb 11                	jmp    403206 <_Z12createReaderP13ConfigurationSs+0x2c9>
  4031f5:	48 8d 85 60 ff ff ff 	lea    -0xa0(%rbp),%rax
  4031fc:	48 89 c7             	mov    %rax,%rdi
  4031ff:	e8 fc f6 ff ff       	callq  402900 <_ZNSsD1Ev@plt>
  403204:	eb 1f                	jmp    403225 <_Z12createReaderP13ConfigurationSs+0x2e8>
  403206:	89 d3                	mov    %edx,%ebx
  403208:	49 89 c4             	mov    %rax,%r12
  40320b:	48 8d 85 60 ff ff ff 	lea    -0xa0(%rbp),%rax
  403212:	48 89 c7             	mov    %rax,%rdi
  403215:	e8 e6 f6 ff ff       	callq  402900 <_ZNSsD1Ev@plt>
  40321a:	4c 89 e0             	mov    %r12,%rax
  40321d:	48 63 d3             	movslq %ebx,%rdx
  403220:	e9 b4 0d 00 00       	jmpq   403fd9 <_Z12createReaderP13ConfigurationSs+0x109c>
  403225:	83 45 dc 01          	addl   $0x1,-0x24(%rbp)
  403229:	8b 45 dc             	mov    -0x24(%rbp),%eax
  40322c:	48 63 d8             	movslq %eax,%rbx
  40322f:	48 8d 85 10 ff ff ff 	lea    -0xf0(%rbp),%rax
  403236:	48 89 c7             	mov    %rax,%rdi
  403239:	e8 4c 28 00 00       	callq  405a8a <_ZNKSt6vectorISsSaISsEE4sizeEv>
  40323e:	48 83 e8 01          	sub    $0x1,%rax
  403242:	48 39 c3             	cmp    %rax,%rbx
  403245:	0f 92 c0             	setb   %al
  403248:	84 c0                	test   %al,%al
  40324a:	0f 85 0d ff ff ff    	jne    40315d <_Z12createReaderP13ConfigurationSs+0x220>
  403250:	e9 33 0d 00 00       	jmpq   403f88 <_Z12createReaderP13ConfigurationSs+0x104b>
  403255:	48 8d 85 70 ff ff ff 	lea    -0x90(%rbp),%rax
  40325c:	48 8d 9d 30 ff ff ff 	lea    -0xd0(%rbp),%rbx
  403263:	b9 01 00 00 00       	mov    $0x1,%ecx
  403268:	ba 00 00 00 00       	mov    $0x0,%edx
  40326d:	48 89 de             	mov    %rbx,%rsi
  403270:	48 89 c7             	mov    %rax,%rdi
  403273:	e8 c8 f4 ff ff       	callq  402740 <_ZNKSs6substrEmm@plt>
  403278:	48 8d 85 70 ff ff ff 	lea    -0x90(%rbp),%rax
  40327f:	be 75 5a 42 00       	mov    $0x425a75,%esi
  403284:	48 89 c7             	mov    %rax,%rdi
  403287:	e8 b6 28 00 00       	callq  405b42 <_ZStneIcSt11char_traitsIcESaIcEEbRKSbIT_T0_T1_EPKS3_>
  40328c:	89 c3                	mov    %eax,%ebx
  40328e:	48 8d 85 70 ff ff ff 	lea    -0x90(%rbp),%rax
  403295:	48 89 c7             	mov    %rax,%rdi
  403298:	e8 63 f6 ff ff       	callq  402900 <_ZNSsD1Ev@plt>
  40329d:	eb 1f                	jmp    4032be <_Z12createReaderP13ConfigurationSs+0x381>
  40329f:	89 d3                	mov    %edx,%ebx
  4032a1:	49 89 c4             	mov    %rax,%r12
  4032a4:	48 8d 85 70 ff ff ff 	lea    -0x90(%rbp),%rax
  4032ab:	48 89 c7             	mov    %rax,%rdi
  4032ae:	e8 4d f6 ff ff       	callq  402900 <_ZNSsD1Ev@plt>
  4032b3:	4c 89 e0             	mov    %r12,%rax
  4032b6:	48 63 d3             	movslq %ebx,%rdx
  4032b9:	e9 1b 0d 00 00       	jmpq   403fd9 <_Z12createReaderP13ConfigurationSs+0x109c>
  4032be:	84 db                	test   %bl,%bl
  4032c0:	0f 84 c2 0c 00 00    	je     403f88 <_Z12createReaderP13ConfigurationSs+0x104b>
  4032c6:	48 8d 85 e0 fe ff ff 	lea    -0x120(%rbp),%rax
  4032cd:	48 8d 8d 30 ff ff ff 	lea    -0xd0(%rbp),%rcx
  4032d4:	ba 3d 00 00 00       	mov    $0x3d,%edx
  4032d9:	48 89 ce             	mov    %rcx,%rsi
  4032dc:	48 89 c7             	mov    %rax,%rdi
  4032df:	e8 ee fb ff ff       	callq  402ed2 <_Z5splitRKSsc>
  4032e4:	48 8d 85 e0 fe ff ff 	lea    -0x120(%rbp),%rax
  4032eb:	48 89 c7             	mov    %rax,%rdi
  4032ee:	e8 97 27 00 00       	callq  405a8a <_ZNKSt6vectorISsSaISsEE4sizeEv>
  4032f3:	48 83 f8 01          	cmp    $0x1,%rax
  4032f7:	0f 97 c0             	seta   %al
  4032fa:	84 c0                	test   %al,%al
  4032fc:	0f 84 52 0c 00 00    	je     403f54 <_Z12createReaderP13ConfigurationSs+0x1017>
  403302:	48 8d 85 e0 fe ff ff 	lea    -0x120(%rbp),%rax
  403309:	be 00 00 00 00       	mov    $0x0,%esi
  40330e:	48 89 c7             	mov    %rax,%rdi
  403311:	e8 9e 27 00 00       	callq  405ab4 <_ZNSt6vectorISsSaISsEEixEm>
  403316:	48 89 c2             	mov    %rax,%rdx
  403319:	48 8d 85 d0 fe ff ff 	lea    -0x130(%rbp),%rax
  403320:	48 89 d6             	mov    %rdx,%rsi
  403323:	48 89 c7             	mov    %rax,%rdi
  403326:	e8 45 f5 ff ff       	callq  402870 <_ZNSsC1ERKSs@plt>
  40332b:	48 8d 85 d0 fe ff ff 	lea    -0x130(%rbp),%rax
  403332:	48 89 c7             	mov    %rax,%rdi
  403335:	e8 06 f9 ff ff       	callq  402c40 <_ZNSs5beginEv@plt>
  40333a:	49 89 c4             	mov    %rax,%r12
  40333d:	48 8d 85 d0 fe ff ff 	lea    -0x130(%rbp),%rax
  403344:	48 89 c7             	mov    %rax,%rdi
  403347:	e8 f4 f5 ff ff       	callq  402940 <_ZNSs3endEv@plt>
  40334c:	48 89 c3             	mov    %rax,%rbx
  40334f:	48 8d 85 d0 fe ff ff 	lea    -0x130(%rbp),%rax
  403356:	48 89 c7             	mov    %rax,%rdi
  403359:	e8 e2 f8 ff ff       	callq  402c40 <_ZNSs5beginEv@plt>
  40335e:	b9 f0 2a 40 00       	mov    $0x402af0,%ecx
  403363:	4c 89 e2             	mov    %r12,%rdx
  403366:	48 89 de             	mov    %rbx,%rsi
  403369:	48 89 c7             	mov    %rax,%rdi
  40336c:	e8 f9 27 00 00       	callq  405b6a <_ZSt9transformIN9__gnu_cxx17__normal_iteratorIPcSsEES3_PFiiEET0_T_S7_S6_T1_>
  403371:	48 8d 85 e0 fe ff ff 	lea    -0x120(%rbp),%rax
  403378:	be 01 00 00 00       	mov    $0x1,%esi
  40337d:	48 89 c7             	mov    %rax,%rdi
  403380:	e8 2f 27 00 00       	callq  405ab4 <_ZNSt6vectorISsSaISsEEixEm>
  403385:	48 89 c1             	mov    %rax,%rcx
  403388:	48 8d 85 b0 fe ff ff 	lea    -0x150(%rbp),%rax
  40338f:	ba 22 00 00 00       	mov    $0x22,%edx
  403394:	48 89 ce             	mov    %rcx,%rsi
  403397:	48 89 c7             	mov    %rax,%rdi
  40339a:	e8 33 fb ff ff       	callq  402ed2 <_Z5splitRKSsc>
  40339f:	48 8d 85 a0 fe ff ff 	lea    -0x160(%rbp),%rax
  4033a6:	48 89 c7             	mov    %rax,%rdi
  4033a9:	e8 62 f3 ff ff       	callq  402710 <_ZNSsC1Ev@plt>
  4033ae:	48 8d 85 b0 fe ff ff 	lea    -0x150(%rbp),%rax
  4033b5:	48 89 c7             	mov    %rax,%rdi
  4033b8:	e8 cd 26 00 00       	callq  405a8a <_ZNKSt6vectorISsSaISsEE4sizeEv>
  4033bd:	48 83 f8 01          	cmp    $0x1,%rax
  4033c1:	0f 97 c0             	seta   %al
  4033c4:	84 c0                	test   %al,%al
  4033c6:	74 2b                	je     4033f3 <_Z12createReaderP13ConfigurationSs+0x4b6>
  4033c8:	48 8d 85 b0 fe ff ff 	lea    -0x150(%rbp),%rax
  4033cf:	be 01 00 00 00       	mov    $0x1,%esi
  4033d4:	48 89 c7             	mov    %rax,%rdi
  4033d7:	e8 d8 26 00 00       	callq  405ab4 <_ZNSt6vectorISsSaISsEEixEm>
  4033dc:	48 89 c2             	mov    %rax,%rdx
  4033df:	48 8d 85 a0 fe ff ff 	lea    -0x160(%rbp),%rax
  4033e6:	48 89 d6             	mov    %rdx,%rsi
  4033e9:	48 89 c7             	mov    %rax,%rdi
  4033ec:	e8 8f f8 ff ff       	callq  402c80 <_ZNSsaSERKSs@plt>
  4033f1:	eb 29                	jmp    40341c <_Z12createReaderP13ConfigurationSs+0x4df>
  4033f3:	48 8d 85 b0 fe ff ff 	lea    -0x150(%rbp),%rax
  4033fa:	be 00 00 00 00       	mov    $0x0,%esi
  4033ff:	48 89 c7             	mov    %rax,%rdi
  403402:	e8 ad 26 00 00       	callq  405ab4 <_ZNSt6vectorISsSaISsEEixEm>
  403407:	48 89 c2             	mov    %rax,%rdx
  40340a:	48 8d 85 a0 fe ff ff 	lea    -0x160(%rbp),%rax
  403411:	48 89 d6             	mov    %rdx,%rsi
  403414:	48 89 c7             	mov    %rax,%rdi
  403417:	e8 64 f8 ff ff       	callq  402c80 <_ZNSsaSERKSs@plt>
  40341c:	48 8d 85 d0 fe ff ff 	lea    -0x130(%rbp),%rax
  403423:	be 8b 59 42 00       	mov    $0x42598b,%esi
  403428:	48 89 c7             	mov    %rax,%rdi
  40342b:	e8 30 26 00 00       	callq  405a60 <_ZSteqIcSt11char_traitsIcESaIcEEbRKSbIT_T0_T1_EPKS3_>
  403430:	84 c0                	test   %al,%al
  403432:	0f 84 14 02 00 00    	je     40364c <_Z12createReaderP13ConfigurationSs+0x70f>
  403438:	48 8d 85 80 fe ff ff 	lea    -0x180(%rbp),%rax
  40343f:	48 8d 8d a0 fe ff ff 	lea    -0x160(%rbp),%rcx
  403446:	ba 2c 00 00 00       	mov    $0x2c,%edx
  40344b:	48 89 ce             	mov    %rcx,%rsi
  40344e:	48 89 c7             	mov    %rax,%rdi
  403451:	e8 7c fa ff ff       	callq  402ed2 <_Z5splitRKSsc>
  403456:	48 8d 85 80 fe ff ff 	lea    -0x180(%rbp),%rax
  40345d:	48 89 c7             	mov    %rax,%rdi
  403460:	e8 25 26 00 00       	callq  405a8a <_ZNKSt6vectorISsSaISsEE4sizeEv>
  403465:	48 83 f8 03          	cmp    $0x3,%rax
  403469:	0f 94 c0             	sete   %al
  40346c:	84 c0                	test   %al,%al
  40346e:	0f 84 95 00 00 00    	je     403509 <_Z12createReaderP13ConfigurationSs+0x5cc>
  403474:	48 8d 85 80 fe ff ff 	lea    -0x180(%rbp),%rax
  40347b:	be 00 00 00 00       	mov    $0x0,%esi
  403480:	48 89 c7             	mov    %rax,%rdi
  403483:	e8 2c 26 00 00       	callq  405ab4 <_ZNSt6vectorISsSaISsEEixEm>
  403488:	48 89 c7             	mov    %rax,%rdi
  40348b:	e8 30 f3 ff ff       	callq  4027c0 <_ZNKSs5c_strEv@plt>
  403490:	48 89 c7             	mov    %rax,%rdi
  403493:	e8 58 f5 ff ff       	callq  4029f0 <atoi@plt>
  403498:	89 c2                	mov    %eax,%edx
  40349a:	48 8b 85 78 fb ff ff 	mov    -0x488(%rbp),%rax
  4034a1:	89 50 10             	mov    %edx,0x10(%rax)
  4034a4:	48 8d 85 80 fe ff ff 	lea    -0x180(%rbp),%rax
  4034ab:	be 01 00 00 00       	mov    $0x1,%esi
  4034b0:	48 89 c7             	mov    %rax,%rdi
  4034b3:	e8 fc 25 00 00       	callq  405ab4 <_ZNSt6vectorISsSaISsEEixEm>
  4034b8:	48 89 c7             	mov    %rax,%rdi
  4034bb:	e8 00 f3 ff ff       	callq  4027c0 <_ZNKSs5c_strEv@plt>
  4034c0:	48 89 c7             	mov    %rax,%rdi
  4034c3:	e8 28 f5 ff ff       	callq  4029f0 <atoi@plt>
  4034c8:	89 c2                	mov    %eax,%edx
  4034ca:	48 8b 85 78 fb ff ff 	mov    -0x488(%rbp),%rax
  4034d1:	89 50 14             	mov    %edx,0x14(%rax)
  4034d4:	48 8d 85 80 fe ff ff 	lea    -0x180(%rbp),%rax
  4034db:	be 02 00 00 00       	mov    $0x2,%esi
  4034e0:	48 89 c7             	mov    %rax,%rdi
  4034e3:	e8 cc 25 00 00       	callq  405ab4 <_ZNSt6vectorISsSaISsEEixEm>
  4034e8:	48 89 c7             	mov    %rax,%rdi
  4034eb:	e8 d0 f2 ff ff       	callq  4027c0 <_ZNKSs5c_strEv@plt>
  4034f0:	48 89 c7             	mov    %rax,%rdi
  4034f3:	e8 f8 f4 ff ff       	callq  4029f0 <atoi@plt>
  4034f8:	89 c2                	mov    %eax,%edx
  4034fa:	48 8b 85 78 fb ff ff 	mov    -0x488(%rbp),%rax
  403501:	89 50 18             	mov    %edx,0x18(%rax)
  403504:	e9 93 00 00 00       	jmpq   40359c <_Z12createReaderP13ConfigurationSs+0x65f>
  403509:	48 8d 85 80 fe ff ff 	lea    -0x180(%rbp),%rax
  403510:	48 89 c7             	mov    %rax,%rdi
  403513:	e8 72 25 00 00       	callq  405a8a <_ZNKSt6vectorISsSaISsEE4sizeEv>
  403518:	48 85 c0             	test   %rax,%rax
  40351b:	0f 94 c0             	sete   %al
  40351e:	84 c0                	test   %al,%al
  403520:	74 10                	je     403532 <_Z12createReaderP13ConfigurationSs+0x5f5>
  403522:	48 8b 85 78 fb ff ff 	mov    -0x488(%rbp),%rax
  403529:	c7 40 10 00 01 00 00 	movl   $0x100,0x10(%rax)
  403530:	eb 30                	jmp    403562 <_Z12createReaderP13ConfigurationSs+0x625>
  403532:	48 8d 85 80 fe ff ff 	lea    -0x180(%rbp),%rax
  403539:	be 00 00 00 00       	mov    $0x0,%esi
  40353e:	48 89 c7             	mov    %rax,%rdi
  403541:	e8 6e 25 00 00       	callq  405ab4 <_ZNSt6vectorISsSaISsEEixEm>
  403546:	48 89 c7             	mov    %rax,%rdi
  403549:	e8 72 f2 ff ff       	callq  4027c0 <_ZNKSs5c_strEv@plt>
  40354e:	48 89 c7             	mov    %rax,%rdi
  403551:	e8 9a f4 ff ff       	callq  4029f0 <atoi@plt>
  403556:	89 c2                	mov    %eax,%edx
  403558:	48 8b 85 78 fb ff ff 	mov    -0x488(%rbp),%rax
  40355f:	89 50 10             	mov    %edx,0x10(%rax)
  403562:	48 8b 85 78 fb ff ff 	mov    -0x488(%rbp),%rax
  403569:	f3 0f 10 40 1c       	movss  0x1c(%rax),%xmm0
  40356e:	f3 48 0f 2c c0       	cvttss2si %xmm0,%rax
  403573:	89 c2                	mov    %eax,%edx
  403575:	48 8b 85 78 fb ff ff 	mov    -0x488(%rbp),%rax
  40357c:	89 50 14             	mov    %edx,0x14(%rax)
  40357f:	48 8b 85 78 fb ff ff 	mov    -0x488(%rbp),%rax
  403586:	f3 0f 10 40 1c       	movss  0x1c(%rax),%xmm0
  40358b:	f3 48 0f 2c c0       	cvttss2si %xmm0,%rax
  403590:	89 c2                	mov    %eax,%edx
  403592:	48 8b 85 78 fb ff ff 	mov    -0x488(%rbp),%rax
  403599:	89 50 18             	mov    %edx,0x18(%rax)
  40359c:	48 8b 85 78 fb ff ff 	mov    -0x488(%rbp),%rax
  4035a3:	8b 58 18             	mov    0x18(%rax),%ebx
  4035a6:	48 8b 85 78 fb ff ff 	mov    -0x488(%rbp),%rax
  4035ad:	44 8b 60 14          	mov    0x14(%rax),%r12d
  4035b1:	48 8b 85 78 fb ff ff 	mov    -0x488(%rbp),%rax
  4035b8:	44 8b 68 10          	mov    0x10(%rax),%r13d
  4035bc:	be 77 5a 42 00       	mov    $0x425a77,%esi
  4035c1:	bf a0 3d 63 00       	mov    $0x633da0,%edi
  4035c6:	e8 15 f3 ff ff       	callq  4028e0 <_ZStlsISt11char_traitsIcEERSt13basic_ostreamIcT_ES5_PKc@plt>
  4035cb:	44 89 ee             	mov    %r13d,%esi
  4035ce:	48 89 c7             	mov    %rax,%rdi
  4035d1:	e8 3a f4 ff ff       	callq  402a10 <_ZNSolsEj@plt>
  4035d6:	be 89 5a 42 00       	mov    $0x425a89,%esi
  4035db:	48 89 c7             	mov    %rax,%rdi
  4035de:	e8 fd f2 ff ff       	callq  4028e0 <_ZStlsISt11char_traitsIcEERSt13basic_ostreamIcT_ES5_PKc@plt>
  4035e3:	44 89 e6             	mov    %r12d,%esi
  4035e6:	48 89 c7             	mov    %rax,%rdi
  4035e9:	e8 22 f4 ff ff       	callq  402a10 <_ZNSolsEj@plt>
  4035ee:	be 89 5a 42 00       	mov    $0x425a89,%esi
  4035f3:	48 89 c7             	mov    %rax,%rdi
  4035f6:	e8 e5 f2 ff ff       	callq  4028e0 <_ZStlsISt11char_traitsIcEERSt13basic_ostreamIcT_ES5_PKc@plt>
  4035fb:	89 de                	mov    %ebx,%esi
  4035fd:	48 89 c7             	mov    %rax,%rdi
  403600:	e8 0b f4 ff ff       	callq  402a10 <_ZNSolsEj@plt>
  403605:	be d0 2b 40 00       	mov    $0x402bd0,%esi
  40360a:	48 89 c7             	mov    %rax,%rdi
  40360d:	e8 5e f5 ff ff       	callq  402b70 <_ZNSolsEPFRSoS_E@plt>
  403612:	48 8d 85 80 fe ff ff 	lea    -0x180(%rbp),%rax
  403619:	48 89 c7             	mov    %rax,%rdi
  40361c:	e8 d3 23 00 00       	callq  4059f4 <_ZNSt6vectorISsSaISsEED1Ev>
  403621:	eb 1f                	jmp    403642 <_Z12createReaderP13ConfigurationSs+0x705>
  403623:	89 d3                	mov    %edx,%ebx
  403625:	49 89 c4             	mov    %rax,%r12
  403628:	48 8d 85 80 fe ff ff 	lea    -0x180(%rbp),%rax
  40362f:	48 89 c7             	mov    %rax,%rdi
  403632:	e8 bd 23 00 00       	callq  4059f4 <_ZNSt6vectorISsSaISsEED1Ev>
  403637:	4c 89 e0             	mov    %r12,%rax
  40363a:	48 63 d3             	movslq %ebx,%rdx
  40363d:	e9 62 08 00 00       	jmpq   403ea4 <_Z12createReaderP13ConfigurationSs+0xf67>
  403642:	bb 00 00 00 00       	mov    $0x0,%ebx
  403647:	e9 74 08 00 00       	jmpq   403ec0 <_Z12createReaderP13ConfigurationSs+0xf83>
  40364c:	48 8d 85 d0 fe ff ff 	lea    -0x130(%rbp),%rax
  403653:	be 71 59 42 00       	mov    $0x425971,%esi
  403658:	48 89 c7             	mov    %rax,%rdi
  40365b:	e8 00 24 00 00       	callq  405a60 <_ZSteqIcSt11char_traitsIcESaIcEEbRKSbIT_T0_T1_EPKS3_>
  403660:	84 c0                	test   %al,%al
  403662:	0f 84 4f 02 00 00    	je     4038b7 <_Z12createReaderP13ConfigurationSs+0x97a>
  403668:	48 8d 85 60 fe ff ff 	lea    -0x1a0(%rbp),%rax
  40366f:	48 8d 8d a0 fe ff ff 	lea    -0x160(%rbp),%rcx
  403676:	ba 2c 00 00 00       	mov    $0x2c,%edx
  40367b:	48 89 ce             	mov    %rcx,%rsi
  40367e:	48 89 c7             	mov    %rax,%rdi
  403681:	e8 4c f8 ff ff       	callq  402ed2 <_Z5splitRKSsc>
  403686:	48 8d 85 60 fe ff ff 	lea    -0x1a0(%rbp),%rax
  40368d:	48 89 c7             	mov    %rax,%rdi
  403690:	e8 f5 23 00 00       	callq  405a8a <_ZNKSt6vectorISsSaISsEE4sizeEv>
  403695:	48 83 f8 03          	cmp    $0x3,%rax
  403699:	0f 94 c0             	sete   %al
  40369c:	84 c0                	test   %al,%al
  40369e:	0f 84 ad 00 00 00    	je     403751 <_Z12createReaderP13ConfigurationSs+0x814>
  4036a4:	48 8d 85 60 fe ff ff 	lea    -0x1a0(%rbp),%rax
  4036ab:	be 00 00 00 00       	mov    $0x0,%esi
  4036b0:	48 89 c7             	mov    %rax,%rdi
  4036b3:	e8 fc 23 00 00       	callq  405ab4 <_ZNSt6vectorISsSaISsEEixEm>
  4036b8:	48 89 c7             	mov    %rax,%rdi
  4036bb:	e8 00 f1 ff ff       	callq  4027c0 <_ZNKSs5c_strEv@plt>
  4036c0:	48 89 c7             	mov    %rax,%rdi
  4036c3:	e8 08 f2 ff ff       	callq  4028d0 <atof@plt>
  4036c8:	66 0f 14 c0          	unpcklpd %xmm0,%xmm0
  4036cc:	66 0f 5a c0          	cvtpd2ps %xmm0,%xmm0
  4036d0:	48 8b 85 78 fb ff ff 	mov    -0x488(%rbp),%rax
  4036d7:	f3 0f 11 40 1c       	movss  %xmm0,0x1c(%rax)
  4036dc:	48 8d 85 60 fe ff ff 	lea    -0x1a0(%rbp),%rax
  4036e3:	be 01 00 00 00       	mov    $0x1,%esi
  4036e8:	48 89 c7             	mov    %rax,%rdi
  4036eb:	e8 c4 23 00 00       	callq  405ab4 <_ZNSt6vectorISsSaISsEEixEm>
  4036f0:	48 89 c7             	mov    %rax,%rdi
  4036f3:	e8 c8 f0 ff ff       	callq  4027c0 <_ZNKSs5c_strEv@plt>
  4036f8:	48 89 c7             	mov    %rax,%rdi
  4036fb:	e8 d0 f1 ff ff       	callq  4028d0 <atof@plt>
  403700:	66 0f 14 c0          	unpcklpd %xmm0,%xmm0
  403704:	66 0f 5a c0          	cvtpd2ps %xmm0,%xmm0
  403708:	48 8b 85 78 fb ff ff 	mov    -0x488(%rbp),%rax
  40370f:	f3 0f 11 40 20       	movss  %xmm0,0x20(%rax)
  403714:	48 8d 85 60 fe ff ff 	lea    -0x1a0(%rbp),%rax
  40371b:	be 02 00 00 00       	mov    $0x2,%esi
  403720:	48 89 c7             	mov    %rax,%rdi
  403723:	e8 8c 23 00 00       	callq  405ab4 <_ZNSt6vectorISsSaISsEEixEm>
  403728:	48 89 c7             	mov    %rax,%rdi
  40372b:	e8 90 f0 ff ff       	callq  4027c0 <_ZNKSs5c_strEv@plt>
  403730:	48 89 c7             	mov    %rax,%rdi
  403733:	e8 98 f1 ff ff       	callq  4028d0 <atof@plt>
  403738:	66 0f 14 c0          	unpcklpd %xmm0,%xmm0
  40373c:	66 0f 5a c0          	cvtpd2ps %xmm0,%xmm0
  403740:	48 8b 85 78 fb ff ff 	mov    -0x488(%rbp),%rax
  403747:	f3 0f 11 40 24       	movss  %xmm0,0x24(%rax)
  40374c:	e9 8a 00 00 00       	jmpq   4037db <_Z12createReaderP13ConfigurationSs+0x89e>
  403751:	48 8d 85 60 fe ff ff 	lea    -0x1a0(%rbp),%rax
  403758:	48 89 c7             	mov    %rax,%rdi
  40375b:	e8 2a 23 00 00       	callq  405a8a <_ZNKSt6vectorISsSaISsEE4sizeEv>
  403760:	48 85 c0             	test   %rax,%rax
  403763:	0f 94 c0             	sete   %al
  403766:	84 c0                	test   %al,%al
  403768:	74 11                	je     40377b <_Z12createReaderP13ConfigurationSs+0x83e>
  40376a:	48 8b 85 78 fb ff ff 	mov    -0x488(%rbp),%rax
  403771:	ba 00 00 00 40       	mov    $0x40000000,%edx
  403776:	89 50 1c             	mov    %edx,0x1c(%rax)
  403779:	eb 60                	jmp    4037db <_Z12createReaderP13ConfigurationSs+0x89e>
  40377b:	48 8d 85 60 fe ff ff 	lea    -0x1a0(%rbp),%rax
  403782:	be 00 00 00 00       	mov    $0x0,%esi
  403787:	48 89 c7             	mov    %rax,%rdi
  40378a:	e8 25 23 00 00       	callq  405ab4 <_ZNSt6vectorISsSaISsEEixEm>
  40378f:	48 89 c7             	mov    %rax,%rdi
  403792:	e8 29 f0 ff ff       	callq  4027c0 <_ZNKSs5c_strEv@plt>
  403797:	48 89 c7             	mov    %rax,%rdi
  40379a:	e8 31 f1 ff ff       	callq  4028d0 <atof@plt>
  40379f:	66 0f 14 c0          	unpcklpd %xmm0,%xmm0
  4037a3:	66 0f 5a c0          	cvtpd2ps %xmm0,%xmm0
  4037a7:	48 8b 85 78 fb ff ff 	mov    -0x488(%rbp),%rax
  4037ae:	f3 0f 11 40 1c       	movss  %xmm0,0x1c(%rax)
  4037b3:	48 8b 85 78 fb ff ff 	mov    -0x488(%rbp),%rax
  4037ba:	8b 50 1c             	mov    0x1c(%rax),%edx
  4037bd:	48 8b 85 78 fb ff ff 	mov    -0x488(%rbp),%rax
  4037c4:	89 50 20             	mov    %edx,0x20(%rax)
  4037c7:	48 8b 85 78 fb ff ff 	mov    -0x488(%rbp),%rax
  4037ce:	8b 50 1c             	mov    0x1c(%rax),%edx
  4037d1:	48 8b 85 78 fb ff ff 	mov    -0x488(%rbp),%rax
  4037d8:	89 50 24             	mov    %edx,0x24(%rax)
  4037db:	48 8b 85 78 fb ff ff 	mov    -0x488(%rbp),%rax
  4037e2:	f3 0f 10 40 24       	movss  0x24(%rax),%xmm0
  4037e7:	f3 0f 11 85 48 fb ff 	movss  %xmm0,-0x4b8(%rbp)
  4037ee:	ff 
  4037ef:	48 8b 85 78 fb ff ff 	mov    -0x488(%rbp),%rax
  4037f6:	f3 0f 10 40 20       	movss  0x20(%rax),%xmm0
  4037fb:	f3 0f 11 85 4c fb ff 	movss  %xmm0,-0x4b4(%rbp)
  403802:	ff 
  403803:	48 8b 85 78 fb ff ff 	mov    -0x488(%rbp),%rax
  40380a:	f3 0f 10 40 1c       	movss  0x1c(%rax),%xmm0
  40380f:	f3 0f 11 85 50 fb ff 	movss  %xmm0,-0x4b0(%rbp)
  403816:	ff 
  403817:	be 8b 5a 42 00       	mov    $0x425a8b,%esi
  40381c:	bf a0 3d 63 00       	mov    $0x633da0,%edi
  403821:	e8 ba f0 ff ff       	callq  4028e0 <_ZStlsISt11char_traitsIcEERSt13basic_ostreamIcT_ES5_PKc@plt>
  403826:	f3 0f 10 85 50 fb ff 	movss  -0x4b0(%rbp),%xmm0
  40382d:	ff 
  40382e:	48 89 c7             	mov    %rax,%rdi
  403831:	e8 0a f3 ff ff       	callq  402b40 <_ZNSolsEf@plt>
  403836:	be 89 5a 42 00       	mov    $0x425a89,%esi
  40383b:	48 89 c7             	mov    %rax,%rdi
  40383e:	e8 9d f0 ff ff       	callq  4028e0 <_ZStlsISt11char_traitsIcEERSt13basic_ostreamIcT_ES5_PKc@plt>
  403843:	f3 0f 10 85 4c fb ff 	movss  -0x4b4(%rbp),%xmm0
  40384a:	ff 
  40384b:	48 89 c7             	mov    %rax,%rdi
  40384e:	e8 ed f2 ff ff       	callq  402b40 <_ZNSolsEf@plt>
  403853:	be 89 5a 42 00       	mov    $0x425a89,%esi
  403858:	48 89 c7             	mov    %rax,%rdi
  40385b:	e8 80 f0 ff ff       	callq  4028e0 <_ZStlsISt11char_traitsIcEERSt13basic_ostreamIcT_ES5_PKc@plt>
  403860:	f3 0f 10 85 48 fb ff 	movss  -0x4b8(%rbp),%xmm0
  403867:	ff 
  403868:	48 89 c7             	mov    %rax,%rdi
  40386b:	e8 d0 f2 ff ff       	callq  402b40 <_ZNSolsEf@plt>
  403870:	be d0 2b 40 00       	mov    $0x402bd0,%esi
  403875:	48 89 c7             	mov    %rax,%rdi
  403878:	e8 f3 f2 ff ff       	callq  402b70 <_ZNSolsEPFRSoS_E@plt>
  40387d:	48 8d 85 60 fe ff ff 	lea    -0x1a0(%rbp),%rax
  403884:	48 89 c7             	mov    %rax,%rdi
  403887:	e8 68 21 00 00       	callq  4059f4 <_ZNSt6vectorISsSaISsEED1Ev>
  40388c:	eb 1f                	jmp    4038ad <_Z12createReaderP13ConfigurationSs+0x970>
  40388e:	89 d3                	mov    %edx,%ebx
  403890:	49 89 c4             	mov    %rax,%r12
  403893:	48 8d 85 60 fe ff ff 	lea    -0x1a0(%rbp),%rax
  40389a:	48 89 c7             	mov    %rax,%rdi
  40389d:	e8 52 21 00 00       	callq  4059f4 <_ZNSt6vectorISsSaISsEED1Ev>
  4038a2:	4c 89 e0             	mov    %r12,%rax
  4038a5:	48 63 d3             	movslq %ebx,%rdx
  4038a8:	e9 f7 05 00 00       	jmpq   403ea4 <_Z12createReaderP13ConfigurationSs+0xf67>
  4038ad:	bb 00 00 00 00       	mov    $0x0,%ebx
  4038b2:	e9 09 06 00 00       	jmpq   403ec0 <_Z12createReaderP13ConfigurationSs+0xf83>
  4038b7:	48 8d 85 d0 fe ff ff 	lea    -0x130(%rbp),%rax
  4038be:	be 99 5a 42 00       	mov    $0x425a99,%esi
  4038c3:	48 89 c7             	mov    %rax,%rdi
  4038c6:	e8 95 21 00 00       	callq  405a60 <_ZSteqIcSt11char_traitsIcESaIcEEbRKSbIT_T0_T1_EPKS3_>
  4038cb:	84 c0                	test   %al,%al
  4038cd:	0f 84 fd 01 00 00    	je     403ad0 <_Z12createReaderP13ConfigurationSs+0xb93>
  4038d3:	48 8d 85 40 fe ff ff 	lea    -0x1c0(%rbp),%rax
  4038da:	48 8d 8d a0 fe ff ff 	lea    -0x160(%rbp),%rcx
  4038e1:	ba 2c 00 00 00       	mov    $0x2c,%edx
  4038e6:	48 89 ce             	mov    %rcx,%rsi
  4038e9:	48 89 c7             	mov    %rax,%rdi
  4038ec:	e8 e1 f5 ff ff       	callq  402ed2 <_Z5splitRKSsc>
  4038f1:	48 8d 85 40 fe ff ff 	lea    -0x1c0(%rbp),%rax
  4038f8:	48 89 c7             	mov    %rax,%rdi
  4038fb:	e8 8a 21 00 00       	callq  405a8a <_ZNKSt6vectorISsSaISsEE4sizeEv>
  403900:	48 83 f8 03          	cmp    $0x3,%rax
  403904:	0f 94 c0             	sete   %al
  403907:	84 c0                	test   %al,%al
  403909:	0f 84 4c 01 00 00    	je     403a5b <_Z12createReaderP13ConfigurationSs+0xb1e>
  40390f:	48 8d 85 40 fe ff ff 	lea    -0x1c0(%rbp),%rax
  403916:	be 00 00 00 00       	mov    $0x0,%esi
  40391b:	48 89 c7             	mov    %rax,%rdi
  40391e:	e8 91 21 00 00       	callq  405ab4 <_ZNSt6vectorISsSaISsEEixEm>
  403923:	48 89 c7             	mov    %rax,%rdi
  403926:	e8 95 ee ff ff       	callq  4027c0 <_ZNKSs5c_strEv@plt>
  40392b:	48 89 c7             	mov    %rax,%rdi
  40392e:	e8 9d ef ff ff       	callq  4028d0 <atof@plt>
  403933:	66 0f 14 c0          	unpcklpd %xmm0,%xmm0
  403937:	66 0f 5a c0          	cvtpd2ps %xmm0,%xmm0
  40393b:	48 8b 85 78 fb ff ff 	mov    -0x488(%rbp),%rax
  403942:	f3 0f 11 40 28       	movss  %xmm0,0x28(%rax)
  403947:	48 8d 85 40 fe ff ff 	lea    -0x1c0(%rbp),%rax
  40394e:	be 01 00 00 00       	mov    $0x1,%esi
  403953:	48 89 c7             	mov    %rax,%rdi
  403956:	e8 59 21 00 00       	callq  405ab4 <_ZNSt6vectorISsSaISsEEixEm>
  40395b:	48 89 c7             	mov    %rax,%rdi
  40395e:	e8 5d ee ff ff       	callq  4027c0 <_ZNKSs5c_strEv@plt>
  403963:	48 89 c7             	mov    %rax,%rdi
  403966:	e8 65 ef ff ff       	callq  4028d0 <atof@plt>
  40396b:	66 0f 14 c0          	unpcklpd %xmm0,%xmm0
  40396f:	66 0f 5a c0          	cvtpd2ps %xmm0,%xmm0
  403973:	48 8b 85 78 fb ff ff 	mov    -0x488(%rbp),%rax
  40397a:	f3 0f 11 40 2c       	movss  %xmm0,0x2c(%rax)
  40397f:	48 8d 85 40 fe ff ff 	lea    -0x1c0(%rbp),%rax
  403986:	be 02 00 00 00       	mov    $0x2,%esi
  40398b:	48 89 c7             	mov    %rax,%rdi
  40398e:	e8 21 21 00 00       	callq  405ab4 <_ZNSt6vectorISsSaISsEEixEm>
  403993:	48 89 c7             	mov    %rax,%rdi
  403996:	e8 25 ee ff ff       	callq  4027c0 <_ZNKSs5c_strEv@plt>
  40399b:	48 89 c7             	mov    %rax,%rdi
  40399e:	e8 2d ef ff ff       	callq  4028d0 <atof@plt>
  4039a3:	66 0f 14 c0          	unpcklpd %xmm0,%xmm0
  4039a7:	66 0f 5a c0          	cvtpd2ps %xmm0,%xmm0
  4039ab:	48 8b 85 78 fb ff ff 	mov    -0x488(%rbp),%rax
  4039b2:	f3 0f 11 40 30       	movss  %xmm0,0x30(%rax)
  4039b7:	48 8b 85 78 fb ff ff 	mov    -0x488(%rbp),%rax
  4039be:	f3 0f 10 40 30       	movss  0x30(%rax),%xmm0
  4039c3:	f3 0f 11 85 54 fb ff 	movss  %xmm0,-0x4ac(%rbp)
  4039ca:	ff 
  4039cb:	48 8b 85 78 fb ff ff 	mov    -0x488(%rbp),%rax
  4039d2:	f3 0f 10 40 2c       	movss  0x2c(%rax),%xmm0
  4039d7:	f3 0f 11 85 58 fb ff 	movss  %xmm0,-0x4a8(%rbp)
  4039de:	ff 
  4039df:	48 8b 85 78 fb ff ff 	mov    -0x488(%rbp),%rax
  4039e6:	f3 0f 10 40 28       	movss  0x28(%rax),%xmm0
  4039eb:	f3 0f 11 85 5c fb ff 	movss  %xmm0,-0x4a4(%rbp)
  4039f2:	ff 
  4039f3:	be aa 5a 42 00       	mov    $0x425aaa,%esi
  4039f8:	bf a0 3d 63 00       	mov    $0x633da0,%edi
  4039fd:	e8 de ee ff ff       	callq  4028e0 <_ZStlsISt11char_traitsIcEERSt13basic_ostreamIcT_ES5_PKc@plt>
  403a02:	f3 0f 10 85 5c fb ff 	movss  -0x4a4(%rbp),%xmm0
  403a09:	ff 
  403a0a:	48 89 c7             	mov    %rax,%rdi
  403a0d:	e8 2e f1 ff ff       	callq  402b40 <_ZNSolsEf@plt>
  403a12:	be bd 5a 42 00       	mov    $0x425abd,%esi
  403a17:	48 89 c7             	mov    %rax,%rdi
  403a1a:	e8 c1 ee ff ff       	callq  4028e0 <_ZStlsISt11char_traitsIcEERSt13basic_ostreamIcT_ES5_PKc@plt>
  403a1f:	f3 0f 10 85 58 fb ff 	movss  -0x4a8(%rbp),%xmm0
  403a26:	ff 
  403a27:	48 89 c7             	mov    %rax,%rdi
  403a2a:	e8 11 f1 ff ff       	callq  402b40 <_ZNSolsEf@plt>
  403a2f:	be bd 5a 42 00       	mov    $0x425abd,%esi
  403a34:	48 89 c7             	mov    %rax,%rdi
  403a37:	e8 a4 ee ff ff       	callq  4028e0 <_ZStlsISt11char_traitsIcEERSt13basic_ostreamIcT_ES5_PKc@plt>
  403a3c:	f3 0f 10 85 54 fb ff 	movss  -0x4ac(%rbp),%xmm0
  403a43:	ff 
  403a44:	48 89 c7             	mov    %rax,%rdi
  403a47:	e8 f4 f0 ff ff       	callq  402b40 <_ZNSolsEf@plt>
  403a4c:	be d0 2b 40 00       	mov    $0x402bd0,%esi
  403a51:	48 89 c7             	mov    %rax,%rdi
  403a54:	e8 17 f1 ff ff       	callq  402b70 <_ZNSolsEPFRSoS_E@plt>
  403a59:	eb 3b                	jmp    403a96 <_Z12createReaderP13ConfigurationSs+0xb59>
  403a5b:	be c0 5a 42 00       	mov    $0x425ac0,%esi
  403a60:	bf 20 3c 63 00       	mov    $0x633c20,%edi
  403a65:	e8 76 ee ff ff       	callq  4028e0 <_ZStlsISt11char_traitsIcEERSt13basic_ostreamIcT_ES5_PKc@plt>
  403a6a:	48 8d 95 a0 fe ff ff 	lea    -0x160(%rbp),%rdx
  403a71:	48 89 d6             	mov    %rdx,%rsi
  403a74:	48 89 c7             	mov    %rax,%rdi
  403a77:	e8 44 f0 ff ff       	callq  402ac0 <_ZStlsIcSt11char_traitsIcESaIcEERSt13basic_ostreamIT_T0_ES7_RKSbIS4_S5_T1_E@plt>
  403a7c:	be fe 5a 42 00       	mov    $0x425afe,%esi
  403a81:	48 89 c7             	mov    %rax,%rdi
  403a84:	e8 57 ee ff ff       	callq  4028e0 <_ZStlsISt11char_traitsIcEERSt13basic_ostreamIcT_ES5_PKc@plt>
  403a89:	be d0 2b 40 00       	mov    $0x402bd0,%esi
  403a8e:	48 89 c7             	mov    %rax,%rdi
  403a91:	e8 da f0 ff ff       	callq  402b70 <_ZNSolsEPFRSoS_E@plt>
  403a96:	48 8d 85 40 fe ff ff 	lea    -0x1c0(%rbp),%rax
  403a9d:	48 89 c7             	mov    %rax,%rdi
  403aa0:	e8 4f 1f 00 00       	callq  4059f4 <_ZNSt6vectorISsSaISsEED1Ev>
  403aa5:	eb 1f                	jmp    403ac6 <_Z12createReaderP13ConfigurationSs+0xb89>
  403aa7:	89 d3                	mov    %edx,%ebx
  403aa9:	49 89 c4             	mov    %rax,%r12
  403aac:	48 8d 85 40 fe ff ff 	lea    -0x1c0(%rbp),%rax
  403ab3:	48 89 c7             	mov    %rax,%rdi
  403ab6:	e8 39 1f 00 00       	callq  4059f4 <_ZNSt6vectorISsSaISsEED1Ev>
  403abb:	4c 89 e0             	mov    %r12,%rax
  403abe:	48 63 d3             	movslq %ebx,%rdx
  403ac1:	e9 de 03 00 00       	jmpq   403ea4 <_Z12createReaderP13ConfigurationSs+0xf67>
  403ac6:	bb 00 00 00 00       	mov    $0x0,%ebx
  403acb:	e9 f0 03 00 00       	jmpq   403ec0 <_Z12createReaderP13ConfigurationSs+0xf83>
  403ad0:	48 8d 85 d0 fe ff ff 	lea    -0x130(%rbp),%rax
  403ad7:	be 2e 59 42 00       	mov    $0x42592e,%esi
  403adc:	48 89 c7             	mov    %rax,%rdi
  403adf:	e8 7c 1f 00 00       	callq  405a60 <_ZSteqIcSt11char_traitsIcESaIcEEbRKSbIT_T0_T1_EPKS3_>
  403ae4:	84 c0                	test   %al,%al
  403ae6:	0f 84 67 02 00 00    	je     403d53 <_Z12createReaderP13ConfigurationSs+0xe16>
  403aec:	48 8d 85 20 fe ff ff 	lea    -0x1e0(%rbp),%rax
  403af3:	48 8d 8d a0 fe ff ff 	lea    -0x160(%rbp),%rcx
  403afa:	ba 2c 00 00 00       	mov    $0x2c,%edx
  403aff:	48 89 ce             	mov    %rcx,%rsi
  403b02:	48 89 c7             	mov    %rax,%rdi
  403b05:	e8 c8 f3 ff ff       	callq  402ed2 <_Z5splitRKSsc>
  403b0a:	48 8d 85 20 fe ff ff 	lea    -0x1e0(%rbp),%rax
  403b11:	48 89 c7             	mov    %rax,%rdi
  403b14:	e8 71 1f 00 00       	callq  405a8a <_ZNKSt6vectorISsSaISsEE4sizeEv>
  403b19:	48 83 f8 04          	cmp    $0x4,%rax
  403b1d:	0f 94 c0             	sete   %al
  403b20:	84 c0                	test   %al,%al
  403b22:	0f 84 c0 01 00 00    	je     403ce8 <_Z12createReaderP13ConfigurationSs+0xdab>
  403b28:	48 8d 85 20 fe ff ff 	lea    -0x1e0(%rbp),%rax
  403b2f:	be 00 00 00 00       	mov    $0x0,%esi
  403b34:	48 89 c7             	mov    %rax,%rdi
  403b37:	e8 78 1f 00 00       	callq  405ab4 <_ZNSt6vectorISsSaISsEEixEm>
  403b3c:	48 89 c7             	mov    %rax,%rdi
  403b3f:	e8 7c ec ff ff       	callq  4027c0 <_ZNKSs5c_strEv@plt>
  403b44:	48 89 c7             	mov    %rax,%rdi
  403b47:	e8 84 ed ff ff       	callq  4028d0 <atof@plt>
  403b4c:	66 0f 14 c0          	unpcklpd %xmm0,%xmm0
  403b50:	66 0f 5a c0          	cvtpd2ps %xmm0,%xmm0
  403b54:	48 8b 85 78 fb ff ff 	mov    -0x488(%rbp),%rax
  403b5b:	f3 0f 11 40 68       	movss  %xmm0,0x68(%rax)
  403b60:	48 8d 85 20 fe ff ff 	lea    -0x1e0(%rbp),%rax
  403b67:	be 01 00 00 00       	mov    $0x1,%esi
  403b6c:	48 89 c7             	mov    %rax,%rdi
  403b6f:	e8 40 1f 00 00       	callq  405ab4 <_ZNSt6vectorISsSaISsEEixEm>
  403b74:	48 89 c7             	mov    %rax,%rdi
  403b77:	e8 44 ec ff ff       	callq  4027c0 <_ZNKSs5c_strEv@plt>
  403b7c:	48 89 c7             	mov    %rax,%rdi
  403b7f:	e8 4c ed ff ff       	callq  4028d0 <atof@plt>
  403b84:	66 0f 14 c0          	unpcklpd %xmm0,%xmm0
  403b88:	66 0f 5a c0          	cvtpd2ps %xmm0,%xmm0
  403b8c:	48 8b 85 78 fb ff ff 	mov    -0x488(%rbp),%rax
  403b93:	f3 0f 11 40 6c       	movss  %xmm0,0x6c(%rax)
  403b98:	48 8d 85 20 fe ff ff 	lea    -0x1e0(%rbp),%rax
  403b9f:	be 02 00 00 00       	mov    $0x2,%esi
  403ba4:	48 89 c7             	mov    %rax,%rdi
  403ba7:	e8 08 1f 00 00       	callq  405ab4 <_ZNSt6vectorISsSaISsEEixEm>
  403bac:	48 89 c7             	mov    %rax,%rdi
  403baf:	e8 0c ec ff ff       	callq  4027c0 <_ZNKSs5c_strEv@plt>
  403bb4:	48 89 c7             	mov    %rax,%rdi
  403bb7:	e8 14 ed ff ff       	callq  4028d0 <atof@plt>
  403bbc:	66 0f 14 c0          	unpcklpd %xmm0,%xmm0
  403bc0:	66 0f 5a c0          	cvtpd2ps %xmm0,%xmm0
  403bc4:	48 8b 85 78 fb ff ff 	mov    -0x488(%rbp),%rax
  403bcb:	f3 0f 11 40 70       	movss  %xmm0,0x70(%rax)
  403bd0:	48 8d 85 20 fe ff ff 	lea    -0x1e0(%rbp),%rax
  403bd7:	be 03 00 00 00       	mov    $0x3,%esi
  403bdc:	48 89 c7             	mov    %rax,%rdi
  403bdf:	e8 d0 1e 00 00       	callq  405ab4 <_ZNSt6vectorISsSaISsEEixEm>
  403be4:	48 89 c7             	mov    %rax,%rdi
  403be7:	e8 d4 eb ff ff       	callq  4027c0 <_ZNKSs5c_strEv@plt>
  403bec:	48 89 c7             	mov    %rax,%rdi
  403bef:	e8 dc ec ff ff       	callq  4028d0 <atof@plt>
  403bf4:	66 0f 14 c0          	unpcklpd %xmm0,%xmm0
  403bf8:	66 0f 5a c0          	cvtpd2ps %xmm0,%xmm0
  403bfc:	48 8b 85 78 fb ff ff 	mov    -0x488(%rbp),%rax
  403c03:	f3 0f 11 40 74       	movss  %xmm0,0x74(%rax)
  403c08:	48 8b 85 78 fb ff ff 	mov    -0x488(%rbp),%rax
  403c0f:	c6 40 78 01          	movb   $0x1,0x78(%rax)
  403c13:	48 8b 85 78 fb ff ff 	mov    -0x488(%rbp),%rax
  403c1a:	f3 0f 10 40 74       	movss  0x74(%rax),%xmm0
  403c1f:	f3 0f 11 85 60 fb ff 	movss  %xmm0,-0x4a0(%rbp)
  403c26:	ff 
  403c27:	48 8b 85 78 fb ff ff 	mov    -0x488(%rbp),%rax
  403c2e:	f3 0f 10 40 70       	movss  0x70(%rax),%xmm0
  403c33:	f3 0f 11 85 64 fb ff 	movss  %xmm0,-0x49c(%rbp)
  403c3a:	ff 
  403c3b:	48 8b 85 78 fb ff ff 	mov    -0x488(%rbp),%rax
  403c42:	f3 0f 10 40 6c       	movss  0x6c(%rax),%xmm0
  403c47:	f3 0f 11 85 68 fb ff 	movss  %xmm0,-0x498(%rbp)
  403c4e:	ff 
  403c4f:	48 8b 85 78 fb ff ff 	mov    -0x488(%rbp),%rax
  403c56:	f3 0f 10 40 68       	movss  0x68(%rax),%xmm0
  403c5b:	f3 0f 11 85 6c fb ff 	movss  %xmm0,-0x494(%rbp)
  403c62:	ff 
  403c63:	be 14 5b 42 00       	mov    $0x425b14,%esi
  403c68:	bf a0 3d 63 00       	mov    $0x633da0,%edi
  403c6d:	e8 6e ec ff ff       	callq  4028e0 <_ZStlsISt11char_traitsIcEERSt13basic_ostreamIcT_ES5_PKc@plt>
  403c72:	f3 0f 10 85 6c fb ff 	movss  -0x494(%rbp),%xmm0
  403c79:	ff 
  403c7a:	48 89 c7             	mov    %rax,%rdi
  403c7d:	e8 be ee ff ff       	callq  402b40 <_ZNSolsEf@plt>
  403c82:	be 1d 5b 42 00       	mov    $0x425b1d,%esi
  403c87:	48 89 c7             	mov    %rax,%rdi
  403c8a:	e8 51 ec ff ff       	callq  4028e0 <_ZStlsISt11char_traitsIcEERSt13basic_ostreamIcT_ES5_PKc@plt>
  403c8f:	f3 0f 10 85 68 fb ff 	movss  -0x498(%rbp),%xmm0
  403c96:	ff 
  403c97:	48 89 c7             	mov    %rax,%rdi
  403c9a:	e8 a1 ee ff ff       	callq  402b40 <_ZNSolsEf@plt>
  403c9f:	be 1d 5b 42 00       	mov    $0x425b1d,%esi
  403ca4:	48 89 c7             	mov    %rax,%rdi
  403ca7:	e8 34 ec ff ff       	callq  4028e0 <_ZStlsISt11char_traitsIcEERSt13basic_ostreamIcT_ES5_PKc@plt>
  403cac:	f3 0f 10 85 64 fb ff 	movss  -0x49c(%rbp),%xmm0
  403cb3:	ff 
  403cb4:	48 89 c7             	mov    %rax,%rdi
  403cb7:	e8 84 ee ff ff       	callq  402b40 <_ZNSolsEf@plt>
  403cbc:	be 1d 5b 42 00       	mov    $0x425b1d,%esi
  403cc1:	48 89 c7             	mov    %rax,%rdi
  403cc4:	e8 17 ec ff ff       	callq  4028e0 <_ZStlsISt11char_traitsIcEERSt13basic_ostreamIcT_ES5_PKc@plt>
  403cc9:	f3 0f 10 85 60 fb ff 	movss  -0x4a0(%rbp),%xmm0
  403cd0:	ff 
  403cd1:	48 89 c7             	mov    %rax,%rdi
  403cd4:	e8 67 ee ff ff       	callq  402b40 <_ZNSolsEf@plt>
  403cd9:	be d0 2b 40 00       	mov    $0x402bd0,%esi
  403cde:	48 89 c7             	mov    %rax,%rdi
  403ce1:	e8 8a ee ff ff       	callq  402b70 <_ZNSolsEPFRSoS_E@plt>
  403ce6:	eb 3b                	jmp    403d23 <_Z12createReaderP13ConfigurationSs+0xde6>
  403ce8:	be 20 5b 42 00       	mov    $0x425b20,%esi
  403ced:	bf 20 3c 63 00       	mov    $0x633c20,%edi
  403cf2:	e8 e9 eb ff ff       	callq  4028e0 <_ZStlsISt11char_traitsIcEERSt13basic_ostreamIcT_ES5_PKc@plt>
  403cf7:	48 8d 95 a0 fe ff ff 	lea    -0x160(%rbp),%rdx
  403cfe:	48 89 d6             	mov    %rdx,%rsi
  403d01:	48 89 c7             	mov    %rax,%rdi
  403d04:	e8 b7 ed ff ff       	callq  402ac0 <_ZStlsIcSt11char_traitsIcESaIcEERSt13basic_ostreamIT_T0_ES7_RKSbIS4_S5_T1_E@plt>
  403d09:	be 53 5b 42 00       	mov    $0x425b53,%esi
  403d0e:	48 89 c7             	mov    %rax,%rdi
  403d11:	e8 ca eb ff ff       	callq  4028e0 <_ZStlsISt11char_traitsIcEERSt13basic_ostreamIcT_ES5_PKc@plt>
  403d16:	be d0 2b 40 00       	mov    $0x402bd0,%esi
  403d1b:	48 89 c7             	mov    %rax,%rdi
  403d1e:	e8 4d ee ff ff       	callq  402b70 <_ZNSolsEPFRSoS_E@plt>
  403d23:	48 8d 85 20 fe ff ff 	lea    -0x1e0(%rbp),%rax
  403d2a:	48 89 c7             	mov    %rax,%rdi
  403d2d:	e8 c2 1c 00 00       	callq  4059f4 <_ZNSt6vectorISsSaISsEED1Ev>
  403d32:	eb 1f                	jmp    403d53 <_Z12createReaderP13ConfigurationSs+0xe16>
  403d34:	89 d3                	mov    %edx,%ebx
  403d36:	49 89 c4             	mov    %rax,%r12
  403d39:	48 8d 85 20 fe ff ff 	lea    -0x1e0(%rbp),%rax
  403d40:	48 89 c7             	mov    %rax,%rdi
  403d43:	e8 ac 1c 00 00       	callq  4059f4 <_ZNSt6vectorISsSaISsEED1Ev>
  403d48:	4c 89 e0             	mov    %r12,%rax
  403d4b:	48 63 d3             	movslq %ebx,%rdx
  403d4e:	e9 51 01 00 00       	jmpq   403ea4 <_Z12createReaderP13ConfigurationSs+0xf67>
  403d53:	48 8d 85 d0 fe ff ff 	lea    -0x130(%rbp),%rax
  403d5a:	be 23 59 42 00       	mov    $0x425923,%esi
  403d5f:	48 89 c7             	mov    %rax,%rdi
  403d62:	e8 f9 1c 00 00       	callq  405a60 <_ZSteqIcSt11char_traitsIcESaIcEEbRKSbIT_T0_T1_EPKS3_>
  403d67:	84 c0                	test   %al,%al
  403d69:	0f 84 2e 01 00 00    	je     403e9d <_Z12createReaderP13ConfigurationSs+0xf60>
  403d6f:	48 8d 45 80          	lea    -0x80(%rbp),%rax
  403d73:	48 8d 9d a0 fe ff ff 	lea    -0x160(%rbp),%rbx
  403d7a:	b9 01 00 00 00       	mov    $0x1,%ecx
  403d7f:	ba 00 00 00 00       	mov    $0x0,%edx
  403d84:	48 89 de             	mov    %rbx,%rsi
  403d87:	48 89 c7             	mov    %rax,%rdi
  403d8a:	e8 b1 e9 ff ff       	callq  402740 <_ZNKSs6substrEmm@plt>
  403d8f:	48 8d 45 80          	lea    -0x80(%rbp),%rax
  403d93:	be 73 5a 42 00       	mov    $0x425a73,%esi
  403d98:	48 89 c7             	mov    %rax,%rdi
  403d9b:	e8 a2 1d 00 00       	callq  405b42 <_ZStneIcSt11char_traitsIcESaIcEEbRKSbIT_T0_T1_EPKS3_>
  403da0:	89 c3                	mov    %eax,%ebx
  403da2:	48 8d 45 80          	lea    -0x80(%rbp),%rax
  403da6:	48 89 c7             	mov    %rax,%rdi
  403da9:	e8 52 eb ff ff       	callq  402900 <_ZNSsD1Ev@plt>
  403dae:	eb 1c                	jmp    403dcc <_Z12createReaderP13ConfigurationSs+0xe8f>
  403db0:	89 d3                	mov    %edx,%ebx
  403db2:	49 89 c4             	mov    %rax,%r12
  403db5:	48 8d 45 80          	lea    -0x80(%rbp),%rax
  403db9:	48 89 c7             	mov    %rax,%rdi
  403dbc:	e8 3f eb ff ff       	callq  402900 <_ZNSsD1Ev@plt>
  403dc1:	4c 89 e0             	mov    %r12,%rax
  403dc4:	48 63 d3             	movslq %ebx,%rdx
  403dc7:	e9 d8 00 00 00       	jmpq   403ea4 <_Z12createReaderP13ConfigurationSs+0xf67>
  403dcc:	84 db                	test   %bl,%bl
  403dce:	74 5a                	je     403e2a <_Z12createReaderP13ConfigurationSs+0xeed>
  403dd0:	48 8d 45 90          	lea    -0x70(%rbp),%rax
  403dd4:	48 8d 95 a0 fe ff ff 	lea    -0x160(%rbp),%rdx
  403ddb:	48 8d 8d 00 ff ff ff 	lea    -0x100(%rbp),%rcx
  403de2:	48 89 ce             	mov    %rcx,%rsi
  403de5:	48 89 c7             	mov    %rax,%rdi
  403de8:	e8 ef 1a 00 00       	callq  4058dc <_ZStplIcSt11char_traitsIcESaIcEESbIT_T0_T1_ERKS6_S8_>
  403ded:	48 8d 55 90          	lea    -0x70(%rbp),%rdx
  403df1:	48 8d 85 a0 fe ff ff 	lea    -0x160(%rbp),%rax
  403df8:	48 89 d6             	mov    %rdx,%rsi
  403dfb:	48 89 c7             	mov    %rax,%rdi
  403dfe:	e8 7d ee ff ff       	callq  402c80 <_ZNSsaSERKSs@plt>
  403e03:	48 8d 45 90          	lea    -0x70(%rbp),%rax
  403e07:	48 89 c7             	mov    %rax,%rdi
  403e0a:	e8 f1 ea ff ff       	callq  402900 <_ZNSsD1Ev@plt>
  403e0f:	eb 19                	jmp    403e2a <_Z12createReaderP13ConfigurationSs+0xeed>
  403e11:	89 d3                	mov    %edx,%ebx
  403e13:	49 89 c4             	mov    %rax,%r12
  403e16:	48 8d 45 90          	lea    -0x70(%rbp),%rax
  403e1a:	48 89 c7             	mov    %rax,%rdi
  403e1d:	e8 de ea ff ff       	callq  402900 <_ZNSsD1Ev@plt>
  403e22:	4c 89 e0             	mov    %r12,%rax
  403e25:	48 63 d3             	movslq %ebx,%rdx
  403e28:	eb 7a                	jmp    403ea4 <_Z12createReaderP13ConfigurationSs+0xf67>
  403e2a:	48 8b 85 78 fb ff ff 	mov    -0x488(%rbp),%rax
  403e31:	48 8d 50 58          	lea    0x58(%rax),%rdx
  403e35:	48 8d 85 a0 fe ff ff 	lea    -0x160(%rbp),%rax
  403e3c:	48 89 c6             	mov    %rax,%rsi
  403e3f:	48 89 d7             	mov    %rdx,%rdi
  403e42:	e8 39 ee ff ff       	callq  402c80 <_ZNSsaSERKSs@plt>
  403e47:	48 8d 95 a0 fe ff ff 	lea    -0x160(%rbp),%rdx
  403e4e:	48 8b 85 70 fb ff ff 	mov    -0x490(%rbp),%rax
  403e55:	48 89 d6             	mov    %rdx,%rsi
  403e58:	48 89 c7             	mov    %rax,%rdi
  403e5b:	e8 20 ee ff ff       	callq  402c80 <_ZNSsaSERKSs@plt>
  403e60:	48 8b 85 78 fb ff ff 	mov    -0x488(%rbp),%rax
  403e67:	48 8d 58 58          	lea    0x58(%rax),%rbx
  403e6b:	be 6c 5b 42 00       	mov    $0x425b6c,%esi
  403e70:	bf a0 3d 63 00       	mov    $0x633da0,%edi
  403e75:	e8 66 ea ff ff       	callq  4028e0 <_ZStlsISt11char_traitsIcEERSt13basic_ostreamIcT_ES5_PKc@plt>
  403e7a:	48 89 de             	mov    %rbx,%rsi
  403e7d:	48 89 c7             	mov    %rax,%rdi
  403e80:	e8 3b ec ff ff       	callq  402ac0 <_ZStlsIcSt11char_traitsIcESaIcEERSt13basic_ostreamIT_T0_ES7_RKSbIS4_S5_T1_E@plt>
  403e85:	be d0 2b 40 00       	mov    $0x402bd0,%esi
  403e8a:	48 89 c7             	mov    %rax,%rdi
  403e8d:	e8 de ec ff ff       	callq  402b70 <_ZNSolsEPFRSoS_E@plt>
  403e92:	c6 45 db 01          	movb   $0x1,-0x25(%rbp)
  403e96:	bb 00 00 00 00       	mov    $0x0,%ebx
  403e9b:	eb 23                	jmp    403ec0 <_Z12createReaderP13ConfigurationSs+0xf83>
  403e9d:	bb 01 00 00 00       	mov    $0x1,%ebx
  403ea2:	eb 1c                	jmp    403ec0 <_Z12createReaderP13ConfigurationSs+0xf83>
  403ea4:	89 d3                	mov    %edx,%ebx
  403ea6:	49 89 c4             	mov    %rax,%r12
  403ea9:	48 8d 85 a0 fe ff ff 	lea    -0x160(%rbp),%rax
  403eb0:	48 89 c7             	mov    %rax,%rdi
  403eb3:	e8 48 ea ff ff       	callq  402900 <_ZNSsD1Ev@plt>
  403eb8:	4c 89 e0             	mov    %r12,%rax
  403ebb:	48 63 d3             	movslq %ebx,%rdx
  403ebe:	eb 21                	jmp    403ee1 <_Z12createReaderP13ConfigurationSs+0xfa4>
  403ec0:	48 8d 85 a0 fe ff ff 	lea    -0x160(%rbp),%rax
  403ec7:	48 89 c7             	mov    %rax,%rdi
  403eca:	e8 31 ea ff ff       	callq  402900 <_ZNSsD1Ev@plt>
  403ecf:	85 db                	test   %ebx,%ebx
  403ed1:	75 07                	jne    403eda <_Z12createReaderP13ConfigurationSs+0xf9d>
  403ed3:	bb 00 00 00 00       	mov    $0x0,%ebx
  403ed8:	eb 23                	jmp    403efd <_Z12createReaderP13ConfigurationSs+0xfc0>
  403eda:	bb 01 00 00 00       	mov    $0x1,%ebx
  403edf:	eb 1c                	jmp    403efd <_Z12createReaderP13ConfigurationSs+0xfc0>
  403ee1:	89 d3                	mov    %edx,%ebx
  403ee3:	49 89 c4             	mov    %rax,%r12
  403ee6:	48 8d 85 b0 fe ff ff 	lea    -0x150(%rbp),%rax
  403eed:	48 89 c7             	mov    %rax,%rdi
  403ef0:	e8 ff 1a 00 00       	callq  4059f4 <_ZNSt6vectorISsSaISsEED1Ev>
  403ef5:	4c 89 e0             	mov    %r12,%rax
  403ef8:	48 63 d3             	movslq %ebx,%rdx
  403efb:	eb 21                	jmp    403f1e <_Z12createReaderP13ConfigurationSs+0xfe1>
  403efd:	48 8d 85 b0 fe ff ff 	lea    -0x150(%rbp),%rax
  403f04:	48 89 c7             	mov    %rax,%rdi
  403f07:	e8 e8 1a 00 00       	callq  4059f4 <_ZNSt6vectorISsSaISsEED1Ev>
  403f0c:	85 db                	test   %ebx,%ebx
  403f0e:	75 07                	jne    403f17 <_Z12createReaderP13ConfigurationSs+0xfda>
  403f10:	bb 00 00 00 00       	mov    $0x0,%ebx
  403f15:	eb 23                	jmp    403f3a <_Z12createReaderP13ConfigurationSs+0xffd>
  403f17:	bb 01 00 00 00       	mov    $0x1,%ebx
  403f1c:	eb 1c                	jmp    403f3a <_Z12createReaderP13ConfigurationSs+0xffd>
  403f1e:	89 d3                	mov    %edx,%ebx
  403f20:	49 89 c4             	mov    %rax,%r12
  403f23:	48 8d 85 d0 fe ff ff 	lea    -0x130(%rbp),%rax
  403f2a:	48 89 c7             	mov    %rax,%rdi
  403f2d:	e8 ce e9 ff ff       	callq  402900 <_ZNSsD1Ev@plt>
  403f32:	4c 89 e0             	mov    %r12,%rax
  403f35:	48 63 d3             	movslq %ebx,%rdx
  403f38:	eb 21                	jmp    403f5b <_Z12createReaderP13ConfigurationSs+0x101e>
  403f3a:	48 8d 85 d0 fe ff ff 	lea    -0x130(%rbp),%rax
  403f41:	48 89 c7             	mov    %rax,%rdi
  403f44:	e8 b7 e9 ff ff       	callq  402900 <_ZNSsD1Ev@plt>
  403f49:	85 db                	test   %ebx,%ebx
  403f4b:	75 07                	jne    403f54 <_Z12createReaderP13ConfigurationSs+0x1017>
  403f4d:	bb 00 00 00 00       	mov    $0x0,%ebx
  403f52:	eb 23                	jmp    403f77 <_Z12createReaderP13ConfigurationSs+0x103a>
  403f54:	bb 01 00 00 00       	mov    $0x1,%ebx
  403f59:	eb 1c                	jmp    403f77 <_Z12createReaderP13ConfigurationSs+0x103a>
  403f5b:	89 d3                	mov    %edx,%ebx
  403f5d:	49 89 c4             	mov    %rax,%r12
  403f60:	48 8d 85 e0 fe ff ff 	lea    -0x120(%rbp),%rax
  403f67:	48 89 c7             	mov    %rax,%rdi
  403f6a:	e8 85 1a 00 00       	callq  4059f4 <_ZNSt6vectorISsSaISsEED1Ev>
  403f6f:	4c 89 e0             	mov    %r12,%rax
  403f72:	48 63 d3             	movslq %ebx,%rdx
  403f75:	eb 62                	jmp    403fd9 <_Z12createReaderP13ConfigurationSs+0x109c>
  403f77:	48 8d 85 e0 fe ff ff 	lea    -0x120(%rbp),%rax
  403f7e:	48 89 c7             	mov    %rax,%rdi
  403f81:	e8 6e 1a 00 00       	callq  4059f4 <_ZNSt6vectorISsSaISsEED1Ev>
  403f86:	85 db                	test   %ebx,%ebx
  403f88:	48 8d 95 30 ff ff ff 	lea    -0xd0(%rbp),%rdx
  403f8f:	48 8d 85 80 fb ff ff 	lea    -0x480(%rbp),%rax
  403f96:	48 89 d6             	mov    %rdx,%rsi
  403f99:	48 89 c7             	mov    %rax,%rdi
  403f9c:	e8 ff e7 ff ff       	callq  4027a0 <_ZSt7getlineIcSt11char_traitsIcESaIcEERSt13basic_istreamIT_T0_ES7_RSbIS4_S5_T1_E@plt>
  403fa1:	48 89 c2             	mov    %rax,%rdx
  403fa4:	48 8b 00             	mov    (%rax),%rax
  403fa7:	48 83 e8 18          	sub    $0x18,%rax
  403fab:	48 8b 00             	mov    (%rax),%rax
  403fae:	48 8d 04 02          	lea    (%rdx,%rax,1),%rax
  403fb2:	48 89 c7             	mov    %rax,%rdi
  403fb5:	e8 96 e7 ff ff       	callq  402750 <_ZNKSt9basic_iosIcSt11char_traitsIcEEcvPvEv@plt>
  403fba:	48 85 c0             	test   %rax,%rax
  403fbd:	0f 95 c0             	setne  %al
  403fc0:	84 c0                	test   %al,%al
  403fc2:	0f 85 8d f2 ff ff    	jne    403255 <_Z12createReaderP13ConfigurationSs+0x318>
  403fc8:	48 8d 85 00 ff ff ff 	lea    -0x100(%rbp),%rax
  403fcf:	48 89 c7             	mov    %rax,%rdi
  403fd2:	e8 29 e9 ff ff       	callq  402900 <_ZNSsD1Ev@plt>
  403fd7:	eb 1c                	jmp    403ff5 <_Z12createReaderP13ConfigurationSs+0x10b8>
  403fd9:	89 d3                	mov    %edx,%ebx
  403fdb:	49 89 c4             	mov    %rax,%r12
  403fde:	48 8d 85 00 ff ff ff 	lea    -0x100(%rbp),%rax
  403fe5:	48 89 c7             	mov    %rax,%rdi
  403fe8:	e8 13 e9 ff ff       	callq  402900 <_ZNSsD1Ev@plt>
  403fed:	4c 89 e0             	mov    %r12,%rax
  403ff0:	48 63 d3             	movslq %ebx,%rdx
  403ff3:	eb 11                	jmp    404006 <_Z12createReaderP13ConfigurationSs+0x10c9>
  403ff5:	48 8d 85 10 ff ff ff 	lea    -0xf0(%rbp),%rax
  403ffc:	48 89 c7             	mov    %rax,%rdi
  403fff:	e8 f0 19 00 00       	callq  4059f4 <_ZNSt6vectorISsSaISsEED1Ev>
  404004:	eb 1c                	jmp    404022 <_Z12createReaderP13ConfigurationSs+0x10e5>
  404006:	89 d3                	mov    %edx,%ebx
  404008:	49 89 c4             	mov    %rax,%r12
  40400b:	48 8d 85 10 ff ff ff 	lea    -0xf0(%rbp),%rax
  404012:	48 89 c7             	mov    %rax,%rdi
  404015:	e8 da 19 00 00       	callq  4059f4 <_ZNSt6vectorISsSaISsEED1Ev>
  40401a:	4c 89 e0             	mov    %r12,%rax
  40401d:	48 63 d3             	movslq %ebx,%rdx
  404020:	eb 11                	jmp    404033 <_Z12createReaderP13ConfigurationSs+0x10f6>
  404022:	48 8d 85 80 fb ff ff 	lea    -0x480(%rbp),%rax
  404029:	48 89 c7             	mov    %rax,%rdi
  40402c:	e8 9f e9 ff ff       	callq  4029d0 <_ZNSt14basic_ifstreamIcSt11char_traitsIcEED1Ev@plt>
  404031:	eb 1c                	jmp    40404f <_Z12createReaderP13ConfigurationSs+0x1112>
  404033:	89 d3                	mov    %edx,%ebx
  404035:	49 89 c4             	mov    %rax,%r12
  404038:	48 8d 85 80 fb ff ff 	lea    -0x480(%rbp),%rax
  40403f:	48 89 c7             	mov    %rax,%rdi
  404042:	e8 89 e9 ff ff       	callq  4029d0 <_ZNSt14basic_ifstreamIcSt11char_traitsIcEED1Ev@plt>
  404047:	4c 89 e0             	mov    %r12,%rax
  40404a:	48 63 d3             	movslq %ebx,%rdx
  40404d:	eb 11                	jmp    404060 <_Z12createReaderP13ConfigurationSs+0x1123>
  40404f:	48 8d 85 30 ff ff ff 	lea    -0xd0(%rbp),%rax
  404056:	48 89 c7             	mov    %rax,%rdi
  404059:	e8 a2 e8 ff ff       	callq  402900 <_ZNSsD1Ev@plt>
  40405e:	eb 22                	jmp    404082 <_Z12createReaderP13ConfigurationSs+0x1145>
  404060:	89 d3                	mov    %edx,%ebx
  404062:	49 89 c4             	mov    %rax,%r12
  404065:	48 8d 85 30 ff ff ff 	lea    -0xd0(%rbp),%rax
  40406c:	48 89 c7             	mov    %rax,%rdi
  40406f:	e8 8c e8 ff ff       	callq  402900 <_ZNSsD1Ev@plt>
  404074:	4c 89 e0             	mov    %r12,%rax
  404077:	48 63 d3             	movslq %ebx,%rdx
  40407a:	48 89 c7             	mov    %rax,%rdi
  40407d:	e8 de eb ff ff       	callq  402c60 <_Unwind_Resume@plt>
  404082:	48 8b 85 70 fb ff ff 	mov    -0x490(%rbp),%rax
  404089:	48 89 c7             	mov    %rax,%rdi
  40408c:	e8 2f e7 ff ff       	callq  4027c0 <_ZNKSs5c_strEv@plt>
  404091:	48 8d 95 90 fd ff ff 	lea    -0x270(%rbp),%rdx
  404098:	48 89 d6             	mov    %rdx,%rsi
  40409b:	48 89 c7             	mov    %rax,%rdi
  40409e:	e8 cd 17 02 00       	callq  425870 <__lstat>
  4040a3:	48 8b 85 70 fb ff ff 	mov    -0x490(%rbp),%rax
  4040aa:	be 1d 5a 42 00       	mov    $0x425a1d,%esi
  4040af:	48 89 c7             	mov    %rax,%rdi
  4040b2:	e8 a9 19 00 00       	callq  405a60 <_ZSteqIcSt11char_traitsIcESaIcEEbRKSbIT_T0_T1_EPKS3_>
  4040b7:	84 c0                	test   %al,%al
  4040b9:	74 0d                	je     4040c8 <_Z12createReaderP13ConfigurationSs+0x118b>
  4040bb:	48 c7 45 d0 00 00 00 	movq   $0x0,-0x30(%rbp)
  4040c2:	00 
  4040c3:	e9 63 02 00 00       	jmpq   40432b <_Z12createReaderP13ConfigurationSs+0x13ee>
  4040c8:	8b 85 a8 fd ff ff    	mov    -0x258(%rbp),%eax
  4040ce:	25 00 f0 00 00       	and    $0xf000,%eax
  4040d3:	3d 00 40 00 00       	cmp    $0x4000,%eax
  4040d8:	0f 85 e2 00 00 00    	jne    4041c0 <_Z12createReaderP13ConfigurationSs+0x1283>
  4040de:	48 8d 45 af          	lea    -0x51(%rbp),%rax
  4040e2:	48 89 c7             	mov    %rax,%rdi
  4040e5:	e8 26 eb ff ff       	callq  402c10 <_ZNSaIcEC1Ev@plt>
  4040ea:	48 8b 85 70 fb ff ff 	mov    -0x490(%rbp),%rax
  4040f1:	48 89 c7             	mov    %rax,%rdi
  4040f4:	e8 c7 e6 ff ff       	callq  4027c0 <_ZNKSs5c_strEv@plt>
  4040f9:	48 89 c1             	mov    %rax,%rcx
  4040fc:	48 8d 55 af          	lea    -0x51(%rbp),%rdx
  404100:	48 8d 45 a0          	lea    -0x60(%rbp),%rax
  404104:	48 89 ce             	mov    %rcx,%rsi
  404107:	48 89 c7             	mov    %rax,%rdi
  40410a:	e8 a1 e8 ff ff       	callq  4029b0 <_ZNSsC1EPKcRKSaIcE@plt>
  40410f:	4c 8d 65 a0          	lea    -0x60(%rbp),%r12
  404113:	bf 28 00 00 00       	mov    $0x28,%edi
  404118:	e8 33 eb ff ff       	callq  402c50 <_Znwm@plt>
  40411d:	48 89 c3             	mov    %rax,%rbx
  404120:	48 8b 85 78 fb ff ff 	mov    -0x488(%rbp),%rax
  404127:	0f b6 80 84 00 00 00 	movzbl 0x84(%rax),%eax
  40412e:	0f b6 c8             	movzbl %al,%ecx
  404131:	48 8b 85 78 fb ff ff 	mov    -0x488(%rbp),%rax
  404138:	8b 90 80 00 00 00    	mov    0x80(%rax),%edx
  40413e:	48 89 d8             	mov    %rbx,%rax
  404141:	4c 89 e6             	mov    %r12,%rsi
  404144:	48 89 c7             	mov    %rax,%rdi
  404147:	e8 88 0a 00 00       	callq  404bd4 <_ZN16SceneDepthReaderC1ESsib>
  40414c:	48 89 d8             	mov    %rbx,%rax
  40414f:	48 89 45 d0          	mov    %rax,-0x30(%rbp)
  404153:	48 8d 45 a0          	lea    -0x60(%rbp),%rax
  404157:	48 89 c7             	mov    %rax,%rdi
  40415a:	e8 a1 e7 ff ff       	callq  402900 <_ZNSsD1Ev@plt>
  40415f:	eb 2f                	jmp    404190 <_Z12createReaderP13ConfigurationSs+0x1253>
  404161:	41 89 d4             	mov    %edx,%r12d
  404164:	49 89 c5             	mov    %rax,%r13
  404167:	48 89 df             	mov    %rbx,%rdi
  40416a:	e8 71 e6 ff ff       	callq  4027e0 <_ZdlPv@plt>
  40416f:	4c 89 e8             	mov    %r13,%rax
  404172:	49 63 d4             	movslq %r12d,%rdx
  404175:	eb 00                	jmp    404177 <_Z12createReaderP13ConfigurationSs+0x123a>
  404177:	89 d3                	mov    %edx,%ebx
  404179:	49 89 c4             	mov    %rax,%r12
  40417c:	48 8d 45 a0          	lea    -0x60(%rbp),%rax
  404180:	48 89 c7             	mov    %rax,%rdi
  404183:	e8 78 e7 ff ff       	callq  402900 <_ZNSsD1Ev@plt>
  404188:	4c 89 e0             	mov    %r12,%rax
  40418b:	48 63 d3             	movslq %ebx,%rdx
  40418e:	eb 11                	jmp    4041a1 <_Z12createReaderP13ConfigurationSs+0x1264>
  404190:	48 8d 45 af          	lea    -0x51(%rbp),%rax
  404194:	48 89 c7             	mov    %rax,%rdi
  404197:	e8 74 e9 ff ff       	callq  402b10 <_ZNSaIcED1Ev@plt>
  40419c:	e9 8a 01 00 00       	jmpq   40432b <_Z12createReaderP13ConfigurationSs+0x13ee>
  4041a1:	89 d3                	mov    %edx,%ebx
  4041a3:	49 89 c4             	mov    %rax,%r12
  4041a6:	48 8d 45 af          	lea    -0x51(%rbp),%rax
  4041aa:	48 89 c7             	mov    %rax,%rdi
  4041ad:	e8 5e e9 ff ff       	callq  402b10 <_ZNSaIcED1Ev@plt>
  4041b2:	4c 89 e0             	mov    %r12,%rax
  4041b5:	48 63 d3             	movslq %ebx,%rdx
  4041b8:	48 89 c7             	mov    %rax,%rdi
  4041bb:	e8 a0 ea ff ff       	callq  402c60 <_Unwind_Resume@plt>
  4041c0:	48 8b 85 70 fb ff ff 	mov    -0x490(%rbp),%rax
  4041c7:	48 89 c7             	mov    %rax,%rdi
  4041ca:	e8 e1 e6 ff ff       	callq  4028b0 <_ZNKSs6lengthEv@plt>
  4041cf:	48 8d 50 fc          	lea    -0x4(%rax),%rdx
  4041d3:	48 8d 45 b0          	lea    -0x50(%rbp),%rax
  4041d7:	48 8b 9d 70 fb ff ff 	mov    -0x490(%rbp),%rbx
  4041de:	b9 04 00 00 00       	mov    $0x4,%ecx
  4041e3:	48 89 de             	mov    %rbx,%rsi
  4041e6:	48 89 c7             	mov    %rax,%rdi
  4041e9:	e8 52 e5 ff ff       	callq  402740 <_ZNKSs6substrEmm@plt>
  4041ee:	48 8d 45 b0          	lea    -0x50(%rbp),%rax
  4041f2:	be 79 5b 42 00       	mov    $0x425b79,%esi
  4041f7:	48 89 c7             	mov    %rax,%rdi
  4041fa:	e8 61 18 00 00       	callq  405a60 <_ZSteqIcSt11char_traitsIcESaIcEEbRKSbIT_T0_T1_EPKS3_>
  4041ff:	89 c3                	mov    %eax,%ebx
  404201:	48 8d 45 b0          	lea    -0x50(%rbp),%rax
  404205:	48 89 c7             	mov    %rax,%rdi
  404208:	e8 f3 e6 ff ff       	callq  402900 <_ZNSsD1Ev@plt>
  40420d:	84 db                	test   %bl,%bl
  40420f:	75 24                	jne    404235 <_Z12createReaderP13ConfigurationSs+0x12f8>
  404211:	e9 fe 00 00 00       	jmpq   404314 <_Z12createReaderP13ConfigurationSs+0x13d7>
  404216:	89 d3                	mov    %edx,%ebx
  404218:	49 89 c4             	mov    %rax,%r12
  40421b:	48 8d 45 b0          	lea    -0x50(%rbp),%rax
  40421f:	48 89 c7             	mov    %rax,%rdi
  404222:	e8 d9 e6 ff ff       	callq  402900 <_ZNSsD1Ev@plt>
  404227:	4c 89 e0             	mov    %r12,%rax
  40422a:	48 63 d3             	movslq %ebx,%rdx
  40422d:	48 89 c7             	mov    %rax,%rdi
  404230:	e8 2b ea ff ff       	callq  402c60 <_Unwind_Resume@plt>
  404235:	48 8d 45 cf          	lea    -0x31(%rbp),%rax
  404239:	48 89 c7             	mov    %rax,%rdi
  40423c:	e8 cf e9 ff ff       	callq  402c10 <_ZNSaIcEC1Ev@plt>
  404241:	48 8b 85 70 fb ff ff 	mov    -0x490(%rbp),%rax
  404248:	48 89 c7             	mov    %rax,%rdi
  40424b:	e8 70 e5 ff ff       	callq  4027c0 <_ZNKSs5c_strEv@plt>
  404250:	48 89 c1             	mov    %rax,%rcx
  404253:	48 8d 55 cf          	lea    -0x31(%rbp),%rdx
  404257:	48 8d 45 c0          	lea    -0x40(%rbp),%rax
  40425b:	48 89 ce             	mov    %rcx,%rsi
  40425e:	48 89 c7             	mov    %rax,%rdi
  404261:	e8 4a e7 ff ff       	callq  4029b0 <_ZNSsC1EPKcRKSaIcE@plt>
  404266:	4c 8d 65 c0          	lea    -0x40(%rbp),%r12
  40426a:	bf 28 00 00 00       	mov    $0x28,%edi
  40426f:	e8 dc e9 ff ff       	callq  402c50 <_Znwm@plt>
  404274:	48 89 c3             	mov    %rax,%rbx
  404277:	48 8b 85 78 fb ff ff 	mov    -0x488(%rbp),%rax
  40427e:	0f b6 80 84 00 00 00 	movzbl 0x84(%rax),%eax
  404285:	0f b6 c8             	movzbl %al,%ecx
  404288:	48 8b 85 78 fb ff ff 	mov    -0x488(%rbp),%rax
  40428f:	8b 90 80 00 00 00    	mov    0x80(%rax),%edx
  404295:	48 89 d8             	mov    %rbx,%rax
  404298:	4c 89 e6             	mov    %r12,%rsi
  40429b:	48 89 c7             	mov    %rax,%rdi
  40429e:	e8 4d 10 00 00       	callq  4052f0 <_ZN14RawDepthReaderC1ESsib>
  4042a3:	48 89 d8             	mov    %rbx,%rax
  4042a6:	48 89 45 d0          	mov    %rax,-0x30(%rbp)
  4042aa:	48 8d 45 c0          	lea    -0x40(%rbp),%rax
  4042ae:	48 89 c7             	mov    %rax,%rdi
  4042b1:	e8 4a e6 ff ff       	callq  402900 <_ZNSsD1Ev@plt>
  4042b6:	eb 2f                	jmp    4042e7 <_Z12createReaderP13ConfigurationSs+0x13aa>
  4042b8:	41 89 d4             	mov    %edx,%r12d
  4042bb:	49 89 c5             	mov    %rax,%r13
  4042be:	48 89 df             	mov    %rbx,%rdi
  4042c1:	e8 1a e5 ff ff       	callq  4027e0 <_ZdlPv@plt>
  4042c6:	4c 89 e8             	mov    %r13,%rax
  4042c9:	49 63 d4             	movslq %r12d,%rdx
  4042cc:	eb 00                	jmp    4042ce <_Z12createReaderP13ConfigurationSs+0x1391>
  4042ce:	89 d3                	mov    %edx,%ebx
  4042d0:	49 89 c4             	mov    %rax,%r12
  4042d3:	48 8d 45 c0          	lea    -0x40(%rbp),%rax
  4042d7:	48 89 c7             	mov    %rax,%rdi
  4042da:	e8 21 e6 ff ff       	callq  402900 <_ZNSsD1Ev@plt>
  4042df:	4c 89 e0             	mov    %r12,%rax
  4042e2:	48 63 d3             	movslq %ebx,%rdx
  4042e5:	eb 0e                	jmp    4042f5 <_Z12createReaderP13ConfigurationSs+0x13b8>
  4042e7:	48 8d 45 cf          	lea    -0x31(%rbp),%rax
  4042eb:	48 89 c7             	mov    %rax,%rdi
  4042ee:	e8 1d e8 ff ff       	callq  402b10 <_ZNSaIcED1Ev@plt>
  4042f3:	eb 36                	jmp    40432b <_Z12createReaderP13ConfigurationSs+0x13ee>
  4042f5:	89 d3                	mov    %edx,%ebx
  4042f7:	49 89 c4             	mov    %rax,%r12
  4042fa:	48 8d 45 cf          	lea    -0x31(%rbp),%rax
  4042fe:	48 89 c7             	mov    %rax,%rdi
  404301:	e8 0a e8 ff ff       	callq  402b10 <_ZNSaIcED1Ev@plt>
  404306:	4c 89 e0             	mov    %r12,%rax
  404309:	48 63 d3             	movslq %ebx,%rdx
  40430c:	48 89 c7             	mov    %rax,%rdi
  40430f:	e8 4c e9 ff ff       	callq  402c60 <_Unwind_Resume@plt>
  404314:	be 80 5b 42 00       	mov    $0x425b80,%esi
  404319:	bf 20 3c 63 00       	mov    $0x633c20,%edi
  40431e:	e8 bd e5 ff ff       	callq  4028e0 <_ZStlsISt11char_traitsIcEERSt13basic_ostreamIcT_ES5_PKc@plt>
  404323:	48 c7 45 d0 00 00 00 	movq   $0x0,-0x30(%rbp)
  40432a:	00 
  40432b:	48 83 7d d0 00       	cmpq   $0x0,-0x30(%rbp)
  404330:	74 1a                	je     40434c <_Z12createReaderP13ConfigurationSs+0x140f>
  404332:	48 8b 45 d0          	mov    -0x30(%rbp),%rax
  404336:	48 89 c7             	mov    %rax,%rdi
  404339:	e8 ee 05 00 00       	callq  40492c <_ZN11DepthReader7isValidEv>
  40433e:	83 f0 01             	xor    $0x1,%eax
  404341:	84 c0                	test   %al,%al
  404343:	74 07                	je     40434c <_Z12createReaderP13ConfigurationSs+0x140f>
  404345:	b8 01 00 00 00       	mov    $0x1,%eax
  40434a:	eb 05                	jmp    404351 <_Z12createReaderP13ConfigurationSs+0x1414>
  40434c:	b8 00 00 00 00       	mov    $0x0,%eax
  404351:	84 c0                	test   %al,%al
  404353:	74 26                	je     40437b <_Z12createReaderP13ConfigurationSs+0x143e>
  404355:	48 83 7d d0 00       	cmpq   $0x0,-0x30(%rbp)
  40435a:	74 17                	je     404373 <_Z12createReaderP13ConfigurationSs+0x1436>
  40435c:	48 8b 45 d0          	mov    -0x30(%rbp),%rax
  404360:	48 8b 00             	mov    (%rax),%rax
  404363:	48 83 c0 08          	add    $0x8,%rax
  404367:	48 8b 10             	mov    (%rax),%rdx
  40436a:	48 8b 45 d0          	mov    -0x30(%rbp),%rax
  40436e:	48 89 c7             	mov    %rax,%rdi
  404371:	ff d2                	callq  *%rdx
  404373:	48 c7 45 d0 00 00 00 	movq   $0x0,-0x30(%rbp)
  40437a:	00 
  40437b:	48 8b 45 d0          	mov    -0x30(%rbp),%rax
  40437f:	48 81 c4 a8 04 00 00 	add    $0x4a8,%rsp
  404386:	5b                   	pop    %rbx
  404387:	41 5c                	pop    %r12
  404389:	41 5d                	pop    %r13
  40438b:	c9                   	leaveq 
  40438c:	c3                   	retq   

000000000040438d <_ZN4TooN8InternalL16debug_initializeIdEEvPT_i>:
  40438d:	55                   	push   %rbp
  40438e:	48 89 e5             	mov    %rsp,%rbp
  404391:	48 89 7d f8          	mov    %rdi,-0x8(%rbp)
  404395:	89 75 f4             	mov    %esi,-0xc(%rbp)
  404398:	c9                   	leaveq 
  404399:	c3                   	retq   

000000000040439a <_ZN4TooN8InternalL16debug_initializeIfEEvPT_i>:
  40439a:	55                   	push   %rbp
  40439b:	48 89 e5             	mov    %rsp,%rbp
  40439e:	48 89 7d f8          	mov    %rdi,-0x8(%rbp)
  4043a2:	89 75 f4             	mov    %esi,-0xc(%rbp)
  4043a5:	c9                   	leaveq 
  4043a6:	c3                   	retq   

00000000004043a7 <_Z41__static_initialization_and_destruction_0ii>:
  4043a7:	55                   	push   %rbp
  4043a8:	48 89 e5             	mov    %rsp,%rbp
  4043ab:	41 54                	push   %r12
  4043ad:	53                   	push   %rbx
  4043ae:	48 83 ec 30          	sub    $0x30,%rsp
  4043b2:	89 7d dc             	mov    %edi,-0x24(%rbp)
  4043b5:	89 75 d8             	mov    %esi,-0x28(%rbp)
  4043b8:	83 7d dc 01          	cmpl   $0x1,-0x24(%rbp)
  4043bc:	0f 85 41 03 00 00    	jne    404703 <_Z41__static_initialization_and_destruction_0ii+0x35c>
  4043c2:	81 7d d8 ff ff 00 00 	cmpl   $0xffff,-0x28(%rbp)
  4043c9:	0f 85 34 03 00 00    	jne    404703 <_Z41__static_initialization_and_destruction_0ii+0x35c>
  4043cf:	bf 48 3f 63 00       	mov    $0x633f48,%edi
  4043d4:	e8 47 e4 ff ff       	callq  402820 <_ZNSt8ios_base4InitC1Ev@plt>
  4043d9:	b8 c0 28 40 00       	mov    $0x4028c0,%eax
  4043de:	ba 88 35 63 00       	mov    $0x633588,%edx
  4043e3:	be 48 3f 63 00       	mov    $0x633f48,%esi
  4043e8:	48 89 c7             	mov    %rax,%rdi
  4043eb:	e8 a0 e4 ff ff       	callq  402890 <__cxa_atexit@plt>
  4043f0:	f3 0f 10 15 c8 18 02 	movss  0x218c8(%rip),%xmm2        # 425cc0 <_ZZL18__gthread_active_pvE20__gthread_active_ptr+0x48>
  4043f7:	00 
  4043f8:	f3 0f 10 0d ac 18 02 	movss  0x218ac(%rip),%xmm1        # 425cac <_ZZL18__gthread_active_pvE20__gthread_active_ptr+0x34>
  4043ff:	00 
  404400:	f3 0f 10 05 a4 18 02 	movss  0x218a4(%rip),%xmm0        # 425cac <_ZZL18__gthread_active_pvE20__gthread_active_ptr+0x34>
  404407:	00 
  404408:	e8 21 04 00 00       	callq  40482e <_Z11make_float3fff>
  40440d:	66 0f 6f d0          	movdqa %xmm0,%xmm2
  404411:	0f 28 c1             	movaps %xmm1,%xmm0
  404414:	66 0f d6 55 c0       	movq   %xmm2,-0x40(%rbp)
  404419:	f3 0f 11 45 c8       	movss  %xmm0,-0x38(%rbp)
  40441e:	48 8b 45 c0          	mov    -0x40(%rbp),%rax
  404422:	48 89 05 23 fb 22 00 	mov    %rax,0x22fb23(%rip)        # 633f4c <_ZL5light>
  404429:	8b 45 c8             	mov    -0x38(%rbp),%eax
  40442c:	89 05 22 fb 22 00    	mov    %eax,0x22fb22(%rip)        # 633f54 <_ZL5light+0x8>
  404432:	f3 0f 10 15 8a 18 02 	movss  0x2188a(%rip),%xmm2        # 425cc4 <_ZZL18__gthread_active_pvE20__gthread_active_ptr+0x4c>
  404439:	00 
  40443a:	f3 0f 10 0d 82 18 02 	movss  0x21882(%rip),%xmm1        # 425cc4 <_ZZL18__gthread_active_pvE20__gthread_active_ptr+0x4c>
  404441:	00 
  404442:	f3 0f 10 05 7a 18 02 	movss  0x2187a(%rip),%xmm0        # 425cc4 <_ZZL18__gthread_active_pvE20__gthread_active_ptr+0x4c>
  404449:	00 
  40444a:	e8 df 03 00 00       	callq  40482e <_Z11make_float3fff>
  40444f:	66 0f 6f d0          	movdqa %xmm0,%xmm2
  404453:	0f 28 c1             	movaps %xmm1,%xmm0
  404456:	66 0f d6 55 c0       	movq   %xmm2,-0x40(%rbp)
  40445b:	f3 0f 11 45 c8       	movss  %xmm0,-0x38(%rbp)
  404460:	48 8b 45 c0          	mov    -0x40(%rbp),%rax
  404464:	48 89 05 ed fa 22 00 	mov    %rax,0x22faed(%rip)        # 633f58 <_ZL7ambient>
  40446b:	8b 45 c8             	mov    -0x38(%rbp),%eax
  40446e:	89 05 ec fa 22 00    	mov    %eax,0x22faec(%rip)        # 633f60 <_ZL7ambient+0x8>
  404474:	ba 00 01 00 00       	mov    $0x100,%edx
  404479:	be 00 01 00 00       	mov    $0x100,%esi
  40447e:	bf 00 01 00 00       	mov    $0x100,%edi
  404483:	e8 14 03 00 00       	callq  40479c <_Z10make_uint3jjj>
  404488:	48 89 c1             	mov    %rax,%rcx
  40448b:	89 d0                	mov    %edx,%eax
  40448d:	48 89 4d c0          	mov    %rcx,-0x40(%rbp)
  404491:	89 45 c8             	mov    %eax,-0x38(%rbp)
  404494:	48 8b 45 c0          	mov    -0x40(%rbp),%rax
  404498:	48 89 05 c5 fa 22 00 	mov    %rax,0x22fac5(%rip)        # 633f64 <_ZL25default_volume_resolution>
  40449f:	8b 45 c8             	mov    -0x38(%rbp),%eax
  4044a2:	89 05 c4 fa 22 00    	mov    %eax,0x22fac4(%rip)        # 633f6c <_ZL25default_volume_resolution+0x8>
  4044a8:	f3 0f 10 15 0c 18 02 	movss  0x2180c(%rip),%xmm2        # 425cbc <_ZZL18__gthread_active_pvE20__gthread_active_ptr+0x44>
  4044af:	00 
  4044b0:	f3 0f 10 0d 04 18 02 	movss  0x21804(%rip),%xmm1        # 425cbc <_ZZL18__gthread_active_pvE20__gthread_active_ptr+0x44>
  4044b7:	00 
  4044b8:	f3 0f 10 05 fc 17 02 	movss  0x217fc(%rip),%xmm0        # 425cbc <_ZZL18__gthread_active_pvE20__gthread_active_ptr+0x44>
  4044bf:	00 
  4044c0:	e8 69 03 00 00       	callq  40482e <_Z11make_float3fff>
  4044c5:	66 0f 6f d0          	movdqa %xmm0,%xmm2
  4044c9:	0f 28 c1             	movaps %xmm1,%xmm0
  4044cc:	66 0f d6 55 c0       	movq   %xmm2,-0x40(%rbp)
  4044d1:	f3 0f 11 45 c8       	movss  %xmm0,-0x38(%rbp)
  4044d6:	48 8b 45 c0          	mov    -0x40(%rbp),%rax
  4044da:	48 89 05 8f fa 22 00 	mov    %rax,0x22fa8f(%rip)        # 633f70 <_ZL19default_volume_size>
  4044e1:	8b 45 c8             	mov    -0x38(%rbp),%eax
  4044e4:	89 05 8e fa 22 00    	mov    %eax,0x22fa8e(%rip)        # 633f78 <_ZL19default_volume_size+0x8>
  4044ea:	0f 57 d2             	xorps  %xmm2,%xmm2
  4044ed:	f3 0f 10 0d d3 17 02 	movss  0x217d3(%rip),%xmm1        # 425cc8 <_ZZL18__gthread_active_pvE20__gthread_active_ptr+0x50>
  4044f4:	00 
  4044f5:	f3 0f 10 05 cb 17 02 	movss  0x217cb(%rip),%xmm0        # 425cc8 <_ZZL18__gthread_active_pvE20__gthread_active_ptr+0x50>
  4044fc:	00 
  4044fd:	e8 2c 03 00 00       	callq  40482e <_Z11make_float3fff>
  404502:	66 0f 6f d0          	movdqa %xmm0,%xmm2
  404506:	0f 28 c1             	movaps %xmm1,%xmm0
  404509:	66 0f d6 55 c0       	movq   %xmm2,-0x40(%rbp)
  40450e:	f3 0f 11 45 c8       	movss  %xmm0,-0x38(%rbp)
  404513:	48 8b 45 c0          	mov    -0x40(%rbp),%rax
  404517:	48 89 05 5e fa 22 00 	mov    %rax,0x22fa5e(%rip)        # 633f7c <_ZL26default_initial_pos_factor>
  40451e:	8b 45 c8             	mov    -0x38(%rbp),%eax
  404521:	89 05 5d fa 22 00    	mov    %eax,0x22fa5d(%rip)        # 633f84 <_ZL26default_initial_pos_factor+0x8>
  404527:	48 8d 45 ec          	lea    -0x14(%rbp),%rax
  40452b:	48 89 c7             	mov    %rax,%rdi
  40452e:	e8 dd e6 ff ff       	callq  402c10 <_ZNSaIcEC1Ev@plt>
  404533:	48 8d 45 ec          	lea    -0x14(%rbp),%rax
  404537:	48 89 c2             	mov    %rax,%rdx
  40453a:	be 1d 5a 42 00       	mov    $0x425a1d,%esi
  40453f:	bf 88 3f 63 00       	mov    $0x633f88,%edi
  404544:	e8 67 e4 ff ff       	callq  4029b0 <_ZNSsC1EPKcRKSaIcE@plt>
  404549:	48 8d 45 ec          	lea    -0x14(%rbp),%rax
  40454d:	48 89 c7             	mov    %rax,%rdi
  404550:	e8 bb e5 ff ff       	callq  402b10 <_ZNSaIcED1Ev@plt>
  404555:	b8 00 29 40 00       	mov    $0x402900,%eax
  40455a:	ba 88 35 63 00       	mov    $0x633588,%edx
  40455f:	be 88 3f 63 00       	mov    $0x633f88,%esi
  404564:	48 89 c7             	mov    %rax,%rdi
  404567:	e8 24 e3 ff ff       	callq  402890 <__cxa_atexit@plt>
  40456c:	48 8d 45 ed          	lea    -0x13(%rbp),%rax
  404570:	48 89 c7             	mov    %rax,%rdi
  404573:	e8 98 e6 ff ff       	callq  402c10 <_ZNSaIcEC1Ev@plt>
  404578:	48 8d 45 ed          	lea    -0x13(%rbp),%rax
  40457c:	48 89 c2             	mov    %rax,%rdx
  40457f:	be 1d 5a 42 00       	mov    $0x425a1d,%esi
  404584:	bf 90 3f 63 00       	mov    $0x633f90,%edi
  404589:	e8 22 e4 ff ff       	callq  4029b0 <_ZNSsC1EPKcRKSaIcE@plt>
  40458e:	eb 1f                	jmp    4045af <_Z41__static_initialization_and_destruction_0ii+0x208>
  404590:	89 d3                	mov    %edx,%ebx
  404592:	49 89 c4             	mov    %rax,%r12
  404595:	48 8d 45 ec          	lea    -0x14(%rbp),%rax
  404599:	48 89 c7             	mov    %rax,%rdi
  40459c:	e8 6f e5 ff ff       	callq  402b10 <_ZNSaIcED1Ev@plt>
  4045a1:	4c 89 e0             	mov    %r12,%rax
  4045a4:	48 63 d3             	movslq %ebx,%rdx
  4045a7:	48 89 c7             	mov    %rax,%rdi
  4045aa:	e8 b1 e6 ff ff       	callq  402c60 <_Unwind_Resume@plt>
  4045af:	48 8d 45 ed          	lea    -0x13(%rbp),%rax
  4045b3:	48 89 c7             	mov    %rax,%rdi
  4045b6:	e8 55 e5 ff ff       	callq  402b10 <_ZNSaIcED1Ev@plt>
  4045bb:	b8 00 29 40 00       	mov    $0x402900,%eax
  4045c0:	ba 88 35 63 00       	mov    $0x633588,%edx
  4045c5:	be 90 3f 63 00       	mov    $0x633f90,%esi
  4045ca:	48 89 c7             	mov    %rax,%rdi
  4045cd:	e8 be e2 ff ff       	callq  402890 <__cxa_atexit@plt>
  4045d2:	48 8d 45 ee          	lea    -0x12(%rbp),%rax
  4045d6:	48 89 c7             	mov    %rax,%rdi
  4045d9:	e8 32 e6 ff ff       	callq  402c10 <_ZNSaIcEC1Ev@plt>
  4045de:	48 8d 45 ee          	lea    -0x12(%rbp),%rax
  4045e2:	48 89 c2             	mov    %rax,%rdx
  4045e5:	be 1d 5a 42 00       	mov    $0x425a1d,%esi
  4045ea:	bf 98 3f 63 00       	mov    $0x633f98,%edi
  4045ef:	e8 bc e3 ff ff       	callq  4029b0 <_ZNSsC1EPKcRKSaIcE@plt>
  4045f4:	eb 1f                	jmp    404615 <_Z41__static_initialization_and_destruction_0ii+0x26e>
  4045f6:	89 d3                	mov    %edx,%ebx
  4045f8:	49 89 c4             	mov    %rax,%r12
  4045fb:	48 8d 45 ed          	lea    -0x13(%rbp),%rax
  4045ff:	48 89 c7             	mov    %rax,%rdi
  404602:	e8 09 e5 ff ff       	callq  402b10 <_ZNSaIcED1Ev@plt>
  404607:	4c 89 e0             	mov    %r12,%rax
  40460a:	48 63 d3             	movslq %ebx,%rdx
  40460d:	48 89 c7             	mov    %rax,%rdi
  404610:	e8 4b e6 ff ff       	callq  402c60 <_Unwind_Resume@plt>
  404615:	48 8d 45 ee          	lea    -0x12(%rbp),%rax
  404619:	48 89 c7             	mov    %rax,%rdi
  40461c:	e8 ef e4 ff ff       	callq  402b10 <_ZNSaIcED1Ev@plt>
  404621:	b8 00 29 40 00       	mov    $0x402900,%eax
  404626:	ba 88 35 63 00       	mov    $0x633588,%edx
  40462b:	be 98 3f 63 00       	mov    $0x633f98,%esi
  404630:	48 89 c7             	mov    %rax,%rdi
  404633:	e8 58 e2 ff ff       	callq  402890 <__cxa_atexit@plt>
  404638:	48 8d 45 ef          	lea    -0x11(%rbp),%rax
  40463c:	48 89 c7             	mov    %rax,%rdi
  40463f:	e8 cc e5 ff ff       	callq  402c10 <_ZNSaIcEC1Ev@plt>
  404644:	48 8d 45 ef          	lea    -0x11(%rbp),%rax
  404648:	48 89 c2             	mov    %rax,%rdx
  40464b:	be c0 5b 42 00       	mov    $0x425bc0,%esi
  404650:	bf a0 3f 63 00       	mov    $0x633fa0,%edi
  404655:	e8 56 e3 ff ff       	callq  4029b0 <_ZNSsC1EPKcRKSaIcE@plt>
  40465a:	eb 1f                	jmp    40467b <_Z41__static_initialization_and_destruction_0ii+0x2d4>
  40465c:	89 d3                	mov    %edx,%ebx
  40465e:	49 89 c4             	mov    %rax,%r12
  404661:	48 8d 45 ee          	lea    -0x12(%rbp),%rax
  404665:	48 89 c7             	mov    %rax,%rdi
  404668:	e8 a3 e4 ff ff       	callq  402b10 <_ZNSaIcED1Ev@plt>
  40466d:	4c 89 e0             	mov    %r12,%rax
  404670:	48 63 d3             	movslq %ebx,%rdx
  404673:	48 89 c7             	mov    %rax,%rdi
  404676:	e8 e5 e5 ff ff       	callq  402c60 <_Unwind_Resume@plt>
  40467b:	48 8d 45 ef          	lea    -0x11(%rbp),%rax
  40467f:	48 89 c7             	mov    %rax,%rdi
  404682:	e8 89 e4 ff ff       	callq  402b10 <_ZNSaIcED1Ev@plt>
  404687:	b8 00 29 40 00       	mov    $0x402900,%eax
  40468c:	ba 88 35 63 00       	mov    $0x633588,%edx
  404691:	be a0 3f 63 00       	mov    $0x633fa0,%esi
  404696:	48 89 c7             	mov    %rax,%rdi
  404699:	e8 f2 e1 ff ff       	callq  402890 <__cxa_atexit@plt>
  40469e:	bf a8 3f 63 00       	mov    $0x633fa8,%edi
  4046a3:	e8 00 12 00 00       	callq  4058a8 <_ZN4TooN8OperatorINS_8Internal7ScalarsINS1_3OneEEEEC1Ev>
  4046a8:	bf aa 3f 63 00       	mov    $0x633faa,%edi
  4046ad:	e8 10 12 00 00       	callq  4058c2 <_ZN4TooN8OperatorINS_8Internal8IdentityINS1_3OneEEEEC1Ev>
  4046b2:	8b 05 90 15 02 00    	mov    0x21590(%rip),%eax        # 425c48 <_ZL6SceneK+0x8>
  4046b8:	89 05 ee f8 22 00    	mov    %eax,0x22f8ee(%rip)        # 633fac <_ZL3_u0>
  4046be:	8b 05 90 15 02 00    	mov    0x21590(%rip),%eax        # 425c54 <_ZL6SceneK+0x14>
  4046c4:	89 05 e6 f8 22 00    	mov    %eax,0x22f8e6(%rip)        # 633fb0 <_ZL3_v0>
  4046ca:	8b 05 70 15 02 00    	mov    0x21570(%rip),%eax        # 425c40 <_ZL6SceneK>
  4046d0:	89 05 de f8 22 00    	mov    %eax,0x22f8de(%rip)        # 633fb4 <_ZL8_focal_x>
  4046d6:	8b 05 74 15 02 00    	mov    0x21574(%rip),%eax        # 425c50 <_ZL6SceneK+0x10>
  4046dc:	89 05 d6 f8 22 00    	mov    %eax,0x22f8d6(%rip)        # 633fb8 <_ZL8_focal_y>
  4046e2:	eb 1f                	jmp    404703 <_Z41__static_initialization_and_destruction_0ii+0x35c>
  4046e4:	89 d3                	mov    %edx,%ebx
  4046e6:	49 89 c4             	mov    %rax,%r12
  4046e9:	48 8d 45 ef          	lea    -0x11(%rbp),%rax
  4046ed:	48 89 c7             	mov    %rax,%rdi
  4046f0:	e8 1b e4 ff ff       	callq  402b10 <_ZNSaIcED1Ev@plt>
  4046f5:	4c 89 e0             	mov    %r12,%rax
  4046f8:	48 63 d3             	movslq %ebx,%rdx
  4046fb:	48 89 c7             	mov    %rax,%rdi
  4046fe:	e8 5d e5 ff ff       	callq  402c60 <_Unwind_Resume@plt>
  404703:	48 83 c4 30          	add    $0x30,%rsp
  404707:	5b                   	pop    %rbx
  404708:	41 5c                	pop    %r12
  40470a:	c9                   	leaveq 
  40470b:	c3                   	retq   

000000000040470c <_GLOBAL__I__Z5splitRKSscRSt6vectorISsSaISsEE>:
  40470c:	55                   	push   %rbp
  40470d:	48 89 e5             	mov    %rsp,%rbp
  404710:	be ff ff 00 00       	mov    $0xffff,%esi
  404715:	bf 01 00 00 00       	mov    $0x1,%edi
  40471a:	e8 88 fc ff ff       	callq  4043a7 <_Z41__static_initialization_and_destruction_0ii>
  40471f:	c9                   	leaveq 
  404720:	c3                   	retq   

0000000000404721 <_ZnwmPv>:
  404721:	55                   	push   %rbp
  404722:	48 89 e5             	mov    %rsp,%rbp
  404725:	48 89 7d f8          	mov    %rdi,-0x8(%rbp)
  404729:	48 89 75 f0          	mov    %rsi,-0x10(%rbp)
  40472d:	48 8b 45 f0          	mov    -0x10(%rbp),%rax
  404731:	c9                   	leaveq 
  404732:	c3                   	retq   

0000000000404733 <_ZdlPvS_>:
  404733:	55                   	push   %rbp
  404734:	48 89 e5             	mov    %rsp,%rbp
  404737:	48 89 7d f8          	mov    %rdi,-0x8(%rbp)
  40473b:	48 89 75 f0          	mov    %rsi,-0x10(%rbp)
  40473f:	c9                   	leaveq 
  404740:	c3                   	retq   

0000000000404741 <_ZStorSt13_Ios_OpenmodeS_>:
  404741:	55                   	push   %rbp
  404742:	48 89 e5             	mov    %rsp,%rbp
  404745:	89 7d fc             	mov    %edi,-0x4(%rbp)
  404748:	89 75 f8             	mov    %esi,-0x8(%rbp)
  40474b:	8b 55 fc             	mov    -0x4(%rbp),%edx
  40474e:	8b 45 f8             	mov    -0x8(%rbp),%eax
  404751:	09 d0                	or     %edx,%eax
  404753:	c9                   	leaveq 
  404754:	c3                   	retq   

0000000000404755 <_ZSt4setwi>:
  404755:	55                   	push   %rbp
  404756:	48 89 e5             	mov    %rsp,%rbp
  404759:	89 7d ec             	mov    %edi,-0x14(%rbp)
  40475c:	8b 45 ec             	mov    -0x14(%rbp),%eax
  40475f:	89 45 f0             	mov    %eax,-0x10(%rbp)
  404762:	8b 45 f0             	mov    -0x10(%rbp),%eax
  404765:	c9                   	leaveq 
  404766:	c3                   	retq   

0000000000404767 <_ZSt4sqrtf>:
  404767:	55                   	push   %rbp
  404768:	48 89 e5             	mov    %rsp,%rbp
  40476b:	48 83 ec 20          	sub    $0x20,%rsp
  40476f:	f3 0f 11 45 fc       	movss  %xmm0,-0x4(%rbp)
  404774:	f3 0f 51 45 fc       	sqrtss -0x4(%rbp),%xmm0
  404779:	0f 2e c0             	ucomiss %xmm0,%xmm0
  40477c:	7a 02                	jp     404780 <_ZSt4sqrtf+0x19>
  40477e:	74 0a                	je     40478a <_ZSt4sqrtf+0x23>
  404780:	f3 0f 10 45 fc       	movss  -0x4(%rbp),%xmm0
  404785:	e8 46 e5 ff ff       	callq  402cd0 <sqrtf@plt>
  40478a:	f3 0f 11 45 ec       	movss  %xmm0,-0x14(%rbp)
  40478f:	8b 45 ec             	mov    -0x14(%rbp),%eax
  404792:	89 45 ec             	mov    %eax,-0x14(%rbp)
  404795:	f3 0f 10 45 ec       	movss  -0x14(%rbp),%xmm0
  40479a:	c9                   	leaveq 
  40479b:	c3                   	retq   

000000000040479c <_Z10make_uint3jjj>:
  40479c:	55                   	push   %rbp
  40479d:	48 89 e5             	mov    %rsp,%rbp
  4047a0:	89 7d dc             	mov    %edi,-0x24(%rbp)
  4047a3:	89 75 d8             	mov    %esi,-0x28(%rbp)
  4047a6:	89 55 d4             	mov    %edx,-0x2c(%rbp)
  4047a9:	8b 45 dc             	mov    -0x24(%rbp),%eax
  4047ac:	89 45 e0             	mov    %eax,-0x20(%rbp)
  4047af:	8b 45 d8             	mov    -0x28(%rbp),%eax
  4047b2:	89 45 e4             	mov    %eax,-0x1c(%rbp)
  4047b5:	8b 45 d4             	mov    -0x2c(%rbp),%eax
  4047b8:	89 45 e8             	mov    %eax,-0x18(%rbp)
  4047bb:	48 8b 45 e0          	mov    -0x20(%rbp),%rax
  4047bf:	48 89 45 f0          	mov    %rax,-0x10(%rbp)
  4047c3:	8b 45 e8             	mov    -0x18(%rbp),%eax
  4047c6:	89 45 f8             	mov    %eax,-0x8(%rbp)
  4047c9:	48 8b 45 f0          	mov    -0x10(%rbp),%rax
  4047cd:	8b 55 f8             	mov    -0x8(%rbp),%edx
  4047d0:	c9                   	leaveq 
  4047d1:	c3                   	retq   

00000000004047d2 <_Z11make_float4ffff>:
  4047d2:	55                   	push   %rbp
  4047d3:	48 89 e5             	mov    %rsp,%rbp
  4047d6:	f3 0f 11 45 dc       	movss  %xmm0,-0x24(%rbp)
  4047db:	f3 0f 11 4d d8       	movss  %xmm1,-0x28(%rbp)
  4047e0:	f3 0f 11 55 d4       	movss  %xmm2,-0x2c(%rbp)
  4047e5:	f3 0f 11 5d d0       	movss  %xmm3,-0x30(%rbp)
  4047ea:	8b 45 dc             	mov    -0x24(%rbp),%eax
  4047ed:	89 45 e0             	mov    %eax,-0x20(%rbp)
  4047f0:	8b 45 d8             	mov    -0x28(%rbp),%eax
  4047f3:	89 45 e4             	mov    %eax,-0x1c(%rbp)
  4047f6:	8b 45 d4             	mov    -0x2c(%rbp),%eax
  4047f9:	89 45 e8             	mov    %eax,-0x18(%rbp)
  4047fc:	8b 45 d0             	mov    -0x30(%rbp),%eax
  4047ff:	89 45 ec             	mov    %eax,-0x14(%rbp)
  404802:	48 8b 45 e0          	mov    -0x20(%rbp),%rax
  404806:	48 89 45 f0          	mov    %rax,-0x10(%rbp)
  40480a:	48 8b 45 e8          	mov    -0x18(%rbp),%rax
  40480e:	48 89 45 f8          	mov    %rax,-0x8(%rbp)
  404812:	48 8b 55 f0          	mov    -0x10(%rbp),%rdx
  404816:	48 8b 45 f8          	mov    -0x8(%rbp),%rax
  40481a:	48 89 55 b8          	mov    %rdx,-0x48(%rbp)
  40481e:	f3 0f 7e 45 b8       	movq   -0x48(%rbp),%xmm0
  404823:	48 89 45 b8          	mov    %rax,-0x48(%rbp)
  404827:	f3 0f 7e 4d b8       	movq   -0x48(%rbp),%xmm1
  40482c:	c9                   	leaveq 
  40482d:	c3                   	retq   

000000000040482e <_Z11make_float3fff>:
  40482e:	55                   	push   %rbp
  40482f:	48 89 e5             	mov    %rsp,%rbp
  404832:	f3 0f 11 45 dc       	movss  %xmm0,-0x24(%rbp)
  404837:	f3 0f 11 4d d8       	movss  %xmm1,-0x28(%rbp)
  40483c:	f3 0f 11 55 d4       	movss  %xmm2,-0x2c(%rbp)
  404841:	8b 45 dc             	mov    -0x24(%rbp),%eax
  404844:	89 45 e0             	mov    %eax,-0x20(%rbp)
  404847:	8b 45 d8             	mov    -0x28(%rbp),%eax
  40484a:	89 45 e4             	mov    %eax,-0x1c(%rbp)
  40484d:	8b 45 d4             	mov    -0x2c(%rbp),%eax
  404850:	89 45 e8             	mov    %eax,-0x18(%rbp)
  404853:	48 8b 45 e0          	mov    -0x20(%rbp),%rax
  404857:	48 89 45 f0          	mov    %rax,-0x10(%rbp)
  40485b:	8b 45 e8             	mov    -0x18(%rbp),%eax
  40485e:	89 45 f8             	mov    %eax,-0x8(%rbp)
  404861:	48 8b 55 f0          	mov    -0x10(%rbp),%rdx
  404865:	8b 45 f8             	mov    -0x8(%rbp),%eax
  404868:	48 89 55 b8          	mov    %rdx,-0x48(%rbp)
  40486c:	f3 0f 7e 45 b8       	movq   -0x48(%rbp),%xmm0
  404871:	89 45 b4             	mov    %eax,-0x4c(%rbp)
  404874:	f3 0f 10 4d b4       	movss  -0x4c(%rbp),%xmm1
  404879:	c9                   	leaveq 
  40487a:	c3                   	retq   

000000000040487b <_Z10make_uint2jj>:
  40487b:	55                   	push   %rbp
  40487c:	48 89 e5             	mov    %rsp,%rbp
  40487f:	89 7d ec             	mov    %edi,-0x14(%rbp)
  404882:	89 75 e8             	mov    %esi,-0x18(%rbp)
  404885:	8b 45 ec             	mov    -0x14(%rbp),%eax
  404888:	89 45 f0             	mov    %eax,-0x10(%rbp)
  40488b:	8b 45 e8             	mov    -0x18(%rbp),%eax
  40488e:	89 45 f4             	mov    %eax,-0xc(%rbp)
  404891:	48 8b 45 f0          	mov    -0x10(%rbp),%rax
  404895:	c9                   	leaveq 
  404896:	c3                   	retq   
  404897:	90                   	nop

0000000000404898 <_ZN4TooN8Internal3OneC1Ev>:
  404898:	55                   	push   %rbp
  404899:	48 89 e5             	mov    %rsp,%rbp
  40489c:	48 89 7d f8          	mov    %rdi,-0x8(%rbp)
  4048a0:	c9                   	leaveq 
  4048a1:	c3                   	retq   

00000000004048a2 <_ZN11DepthReaderD2Ev>:
  4048a2:	55                   	push   %rbp
  4048a3:	48 89 e5             	mov    %rsp,%rbp
  4048a6:	48 83 ec 10          	sub    $0x10,%rsp
  4048aa:	48 89 7d f8          	mov    %rdi,-0x8(%rbp)
  4048ae:	48 8b 45 f8          	mov    -0x8(%rbp),%rax
  4048b2:	48 c7 00 b0 5d 42 00 	movq   $0x425db0,(%rax)
  4048b9:	b8 00 00 00 00       	mov    $0x0,%eax
  4048be:	84 c0                	test   %al,%al
  4048c0:	74 0c                	je     4048ce <_ZN11DepthReaderD2Ev+0x2c>
  4048c2:	48 8b 45 f8          	mov    -0x8(%rbp),%rax
  4048c6:	48 89 c7             	mov    %rax,%rdi
  4048c9:	e8 12 df ff ff       	callq  4027e0 <_ZdlPv@plt>
  4048ce:	c9                   	leaveq 
  4048cf:	c3                   	retq   

00000000004048d0 <_ZN11DepthReaderD1Ev>:
  4048d0:	55                   	push   %rbp
  4048d1:	48 89 e5             	mov    %rsp,%rbp
  4048d4:	48 83 ec 10          	sub    $0x10,%rsp
  4048d8:	48 89 7d f8          	mov    %rdi,-0x8(%rbp)
  4048dc:	48 8b 45 f8          	mov    -0x8(%rbp),%rax
  4048e0:	48 c7 00 b0 5d 42 00 	movq   $0x425db0,(%rax)
  4048e7:	b8 00 00 00 00       	mov    $0x0,%eax
  4048ec:	84 c0                	test   %al,%al
  4048ee:	74 0c                	je     4048fc <_ZN11DepthReaderD1Ev+0x2c>
  4048f0:	48 8b 45 f8          	mov    -0x8(%rbp),%rax
  4048f4:	48 89 c7             	mov    %rax,%rdi
  4048f7:	e8 e4 de ff ff       	callq  4027e0 <_ZdlPv@plt>
  4048fc:	c9                   	leaveq 
  4048fd:	c3                   	retq   

00000000004048fe <_ZN11DepthReaderD0Ev>:
  4048fe:	55                   	push   %rbp
  4048ff:	48 89 e5             	mov    %rsp,%rbp
  404902:	48 83 ec 10          	sub    $0x10,%rsp
  404906:	48 89 7d f8          	mov    %rdi,-0x8(%rbp)
  40490a:	48 8b 45 f8          	mov    -0x8(%rbp),%rax
  40490e:	48 c7 00 b0 5d 42 00 	movq   $0x425db0,(%rax)
  404915:	b8 01 00 00 00       	mov    $0x1,%eax
  40491a:	84 c0                	test   %al,%al
  40491c:	74 0c                	je     40492a <_ZN11DepthReaderD0Ev+0x2c>
  40491e:	48 8b 45 f8          	mov    -0x8(%rbp),%rax
  404922:	48 89 c7             	mov    %rax,%rdi
  404925:	e8 b6 de ff ff       	callq  4027e0 <_ZdlPv@plt>
  40492a:	c9                   	leaveq 
  40492b:	c3                   	retq   

000000000040492c <_ZN11DepthReader7isValidEv>:
  40492c:	55                   	push   %rbp
  40492d:	48 89 e5             	mov    %rsp,%rbp
  404930:	48 89 7d f8          	mov    %rdi,-0x8(%rbp)
  404934:	48 8b 45 f8          	mov    -0x8(%rbp),%rax
  404938:	0f b6 40 09          	movzbl 0x9(%rax),%eax
  40493c:	c9                   	leaveq 
  40493d:	c3                   	retq   

000000000040493e <_ZN11DepthReader14get_next_frameEv>:
  40493e:	55                   	push   %rbp
  40493f:	48 89 e5             	mov    %rsp,%rbp
  404942:	53                   	push   %rbx
  404943:	48 83 ec 48          	sub    $0x48,%rsp
  404947:	48 89 7d b8          	mov    %rdi,-0x48(%rbp)
  40494b:	48 8b 45 b8          	mov    -0x48(%rbp),%rax
  40494f:	8b 40 10             	mov    0x10(%rax),%eax
  404952:	85 c0                	test   %eax,%eax
  404954:	75 16                	jne    40496c <_ZN11DepthReader14get_next_frameEv+0x2e>
  404956:	48 8b 45 b8          	mov    -0x48(%rbp),%rax
  40495a:	8b 40 0c             	mov    0xc(%rax),%eax
  40495d:	8d 50 01             	lea    0x1(%rax),%edx
  404960:	48 8b 45 b8          	mov    -0x48(%rbp),%rax
  404964:	89 50 0c             	mov    %edx,0xc(%rax)
  404967:	e9 5e 01 00 00       	jmpq   404aca <_ZN11DepthReader14get_next_frameEv+0x18c>
  40496c:	48 8d 45 c0          	lea    -0x40(%rbp),%rax
  404970:	48 89 c6             	mov    %rax,%rsi
  404973:	bf 01 00 00 00       	mov    $0x1,%edi
  404978:	e8 13 de ff ff       	callq  402790 <clock_gettime@plt>
  40497d:	48 8b 45 c0          	mov    -0x40(%rbp),%rax
  404981:	f2 48 0f 2a c8       	cvtsi2sd %rax,%xmm1
  404986:	48 8b 45 c8          	mov    -0x38(%rbp),%rax
  40498a:	f2 48 0f 2a c0       	cvtsi2sd %rax,%xmm0
  40498f:	f2 0f 10 15 e9 12 02 	movsd  0x212e9(%rip),%xmm2        # 425c80 <_ZZL18__gthread_active_pvE20__gthread_active_ptr+0x8>
  404996:	00 
  404997:	f2 0f 5e c2          	divsd  %xmm2,%xmm0
  40499b:	f2 0f 58 c1          	addsd  %xmm1,%xmm0
  40499f:	f2 0f 11 45 d0       	movsd  %xmm0,-0x30(%rbp)
  4049a4:	b8 c8 3f 63 00       	mov    $0x633fc8,%eax
  4049a9:	0f b6 00             	movzbl (%rax),%eax
  4049ac:	84 c0                	test   %al,%al
  4049ae:	75 28                	jne    4049d8 <_ZN11DepthReader14get_next_frameEv+0x9a>
  4049b0:	bf c8 3f 63 00       	mov    $0x633fc8,%edi
  4049b5:	e8 c6 dd ff ff       	callq  402780 <__cxa_guard_acquire@plt>
  4049ba:	85 c0                	test   %eax,%eax
  4049bc:	0f 95 c0             	setne  %al
  4049bf:	84 c0                	test   %al,%al
  4049c1:	74 15                	je     4049d8 <_ZN11DepthReader14get_next_frameEv+0x9a>
  4049c3:	48 8b 45 d0          	mov    -0x30(%rbp),%rax
  4049c7:	48 89 05 02 f6 22 00 	mov    %rax,0x22f602(%rip)        # 633fd0 <_ZZN11DepthReader14get_next_frameEvE11first_frame>
  4049ce:	bf c8 3f 63 00       	mov    $0x633fc8,%edi
  4049d3:	e8 78 df ff ff       	callq  402950 <__cxa_guard_release@plt>
  4049d8:	f2 0f 10 0d f0 f5 22 	movsd  0x22f5f0(%rip),%xmm1        # 633fd0 <_ZZN11DepthReader14get_next_frameEvE11first_frame>
  4049df:	00 
  4049e0:	f2 0f 10 45 d0       	movsd  -0x30(%rbp),%xmm0
  4049e5:	66 0f 28 d0          	movapd %xmm0,%xmm2
  4049e9:	f2 0f 5c d1          	subsd  %xmm1,%xmm2
  4049ed:	66 0f 28 ca          	movapd %xmm2,%xmm1
  4049f1:	48 8b 45 b8          	mov    -0x48(%rbp),%rax
  4049f5:	8b 40 10             	mov    0x10(%rax),%eax
  4049f8:	f2 0f 2a c0          	cvtsi2sd %eax,%xmm0
  4049fc:	f2 0f 59 c1          	mulsd  %xmm1,%xmm0
  404a00:	e8 5b dd ff ff       	callq  402760 <ceil@plt>
  404a05:	f2 0f 2c c0          	cvttsd2si %xmm0,%eax
  404a09:	89 45 dc             	mov    %eax,-0x24(%rbp)
  404a0c:	48 8b 45 b8          	mov    -0x48(%rbp),%rax
  404a10:	8b 55 dc             	mov    -0x24(%rbp),%edx
  404a13:	89 50 0c             	mov    %edx,0xc(%rax)
  404a16:	48 8b 45 b8          	mov    -0x48(%rbp),%rax
  404a1a:	8b 58 0c             	mov    0xc(%rax),%ebx
  404a1d:	be bb 59 42 00       	mov    $0x4259bb,%esi
  404a22:	bf a0 3d 63 00       	mov    $0x633da0,%edi
  404a27:	e8 b4 de ff ff       	callq  4028e0 <_ZStlsISt11char_traitsIcEERSt13basic_ostreamIcT_ES5_PKc@plt>
  404a2c:	89 de                	mov    %ebx,%esi
  404a2e:	48 89 c7             	mov    %rax,%rdi
  404a31:	e8 fa dc ff ff       	callq  402730 <_ZNSolsEi@plt>
  404a36:	be d0 2b 40 00       	mov    $0x402bd0,%esi
  404a3b:	48 89 c7             	mov    %rax,%rdi
  404a3e:	e8 2d e1 ff ff       	callq  402b70 <_ZNSolsEPFRSoS_E@plt>
  404a43:	48 8b 45 b8          	mov    -0x48(%rbp),%rax
  404a47:	8b 40 10             	mov    0x10(%rax),%eax
  404a4a:	f2 0f 2a c0          	cvtsi2sd %eax,%xmm0
  404a4e:	f2 0f 10 0d 32 12 02 	movsd  0x21232(%rip),%xmm1        # 425c88 <_ZZL18__gthread_active_pvE20__gthread_active_ptr+0x10>
  404a55:	00 
  404a56:	66 0f 28 d1          	movapd %xmm1,%xmm2
  404a5a:	f2 0f 5e d0          	divsd  %xmm0,%xmm2
  404a5e:	66 0f 28 c2          	movapd %xmm2,%xmm0
  404a62:	f2 0f 11 45 e0       	movsd  %xmm0,-0x20(%rbp)
  404a67:	48 8b 45 b8          	mov    -0x48(%rbp),%rax
  404a6b:	8b 40 0c             	mov    0xc(%rax),%eax
  404a6e:	f2 0f 2a c0          	cvtsi2sd %eax,%xmm0
  404a72:	f2 0f 59 45 e0       	mulsd  -0x20(%rbp),%xmm0
  404a77:	f2 0f 5c 45 d0       	subsd  -0x30(%rbp),%xmm0
  404a7c:	f2 0f 10 0d 4c f5 22 	movsd  0x22f54c(%rip),%xmm1        # 633fd0 <_ZZN11DepthReader14get_next_frameEvE11first_frame>
  404a83:	00 
  404a84:	f2 0f 58 c1          	addsd  %xmm1,%xmm0
  404a88:	f2 0f 11 45 e8       	movsd  %xmm0,-0x18(%rbp)
  404a8d:	48 8b 45 b8          	mov    -0x48(%rbp),%rax
  404a91:	0f b6 40 14          	movzbl 0x14(%rax),%eax
  404a95:	84 c0                	test   %al,%al
  404a97:	74 31                	je     404aca <_ZN11DepthReader14get_next_frameEv+0x18c>
  404a99:	66 0f 57 c9          	xorpd  %xmm1,%xmm1
  404a9d:	f2 0f 10 45 e8       	movsd  -0x18(%rbp),%xmm0
  404aa2:	66 0f 2e c1          	ucomisd %xmm1,%xmm0
  404aa6:	0f 97 c0             	seta   %al
  404aa9:	84 c0                	test   %al,%al
  404aab:	74 1d                	je     404aca <_ZN11DepthReader14get_next_frameEv+0x18c>
  404aad:	f2 0f 10 4d e8       	movsd  -0x18(%rbp),%xmm1
  404ab2:	f2 0f 10 05 d6 11 02 	movsd  0x211d6(%rip),%xmm0        # 425c90 <_ZZL18__gthread_active_pvE20__gthread_active_ptr+0x18>
  404ab9:	00 
  404aba:	f2 0f 59 c1          	mulsd  %xmm1,%xmm0
  404abe:	f2 48 0f 2c c0       	cvttsd2si %xmm0,%rax
  404ac3:	89 c7                	mov    %eax,%edi
  404ac5:	e8 f6 de ff ff       	callq  4029c0 <usleep@plt>
  404aca:	48 83 c4 48          	add    $0x48,%rsp
  404ace:	5b                   	pop    %rbx
  404acf:	c9                   	leaveq 
  404ad0:	c3                   	retq   
  404ad1:	90                   	nop

0000000000404ad2 <_ZN16SceneDepthReaderD1Ev>:
  404ad2:	55                   	push   %rbp
  404ad3:	48 89 e5             	mov    %rsp,%rbp
  404ad6:	41 54                	push   %r12
  404ad8:	53                   	push   %rbx
  404ad9:	48 83 ec 10          	sub    $0x10,%rsp
  404add:	48 89 7d e8          	mov    %rdi,-0x18(%rbp)
  404ae1:	48 8b 45 e8          	mov    -0x18(%rbp),%rax
  404ae5:	48 c7 00 50 5d 42 00 	movq   $0x425d50,(%rax)
  404aec:	48 8b 45 e8          	mov    -0x18(%rbp),%rax
  404af0:	48 83 c0 18          	add    $0x18,%rax
  404af4:	48 89 c7             	mov    %rax,%rdi
  404af7:	e8 04 de ff ff       	callq  402900 <_ZNSsD1Ev@plt>
  404afc:	48 8b 45 e8          	mov    -0x18(%rbp),%rax
  404b00:	48 89 c7             	mov    %rax,%rdi
  404b03:	e8 9a fd ff ff       	callq  4048a2 <_ZN11DepthReaderD2Ev>
  404b08:	b8 00 00 00 00       	mov    $0x0,%eax
  404b0d:	84 c0                	test   %al,%al
  404b0f:	74 2d                	je     404b3e <_ZN16SceneDepthReaderD1Ev+0x6c>
  404b11:	eb 1f                	jmp    404b32 <_ZN16SceneDepthReaderD1Ev+0x60>
  404b13:	89 d3                	mov    %edx,%ebx
  404b15:	49 89 c4             	mov    %rax,%r12
  404b18:	48 8b 45 e8          	mov    -0x18(%rbp),%rax
  404b1c:	48 89 c7             	mov    %rax,%rdi
  404b1f:	e8 7e fd ff ff       	callq  4048a2 <_ZN11DepthReaderD2Ev>
  404b24:	4c 89 e0             	mov    %r12,%rax
  404b27:	48 63 d3             	movslq %ebx,%rdx
  404b2a:	48 89 c7             	mov    %rax,%rdi
  404b2d:	e8 2e e1 ff ff       	callq  402c60 <_Unwind_Resume@plt>
  404b32:	48 8b 45 e8          	mov    -0x18(%rbp),%rax
  404b36:	48 89 c7             	mov    %rax,%rdi
  404b39:	e8 a2 dc ff ff       	callq  4027e0 <_ZdlPv@plt>
  404b3e:	48 83 c4 10          	add    $0x10,%rsp
  404b42:	5b                   	pop    %rbx
  404b43:	41 5c                	pop    %r12
  404b45:	c9                   	leaveq 
  404b46:	c3                   	retq   
  404b47:	90                   	nop

0000000000404b48 <_ZN16SceneDepthReaderD0Ev>:
  404b48:	55                   	push   %rbp
  404b49:	48 89 e5             	mov    %rsp,%rbp
  404b4c:	41 54                	push   %r12
  404b4e:	53                   	push   %rbx
  404b4f:	48 83 ec 10          	sub    $0x10,%rsp
  404b53:	48 89 7d e8          	mov    %rdi,-0x18(%rbp)
  404b57:	48 8b 45 e8          	mov    -0x18(%rbp),%rax
  404b5b:	48 c7 00 50 5d 42 00 	movq   $0x425d50,(%rax)
  404b62:	48 8b 45 e8          	mov    -0x18(%rbp),%rax
  404b66:	48 83 c0 18          	add    $0x18,%rax
  404b6a:	48 89 c7             	mov    %rax,%rdi
  404b6d:	e8 8e dd ff ff       	callq  402900 <_ZNSsD1Ev@plt>
  404b72:	48 8b 45 e8          	mov    -0x18(%rbp),%rax
  404b76:	48 89 c7             	mov    %rax,%rdi
  404b79:	e8 24 fd ff ff       	callq  4048a2 <_ZN11DepthReaderD2Ev>
  404b7e:	b8 01 00 00 00       	mov    $0x1,%eax
  404b83:	84 c0                	test   %al,%al
  404b85:	74 2d                	je     404bb4 <_ZN16SceneDepthReaderD0Ev+0x6c>
  404b87:	eb 1f                	jmp    404ba8 <_ZN16SceneDepthReaderD0Ev+0x60>
  404b89:	89 d3                	mov    %edx,%ebx
  404b8b:	49 89 c4             	mov    %rax,%r12
  404b8e:	48 8b 45 e8          	mov    -0x18(%rbp),%rax
  404b92:	48 89 c7             	mov    %rax,%rdi
  404b95:	e8 08 fd ff ff       	callq  4048a2 <_ZN11DepthReaderD2Ev>
  404b9a:	4c 89 e0             	mov    %r12,%rax
  404b9d:	48 63 d3             	movslq %ebx,%rdx
  404ba0:	48 89 c7             	mov    %rax,%rdi
  404ba3:	e8 b8 e0 ff ff       	callq  402c60 <_Unwind_Resume@plt>
  404ba8:	48 8b 45 e8          	mov    -0x18(%rbp),%rax
  404bac:	48 89 c7             	mov    %rax,%rdi
  404baf:	e8 2c dc ff ff       	callq  4027e0 <_ZdlPv@plt>
  404bb4:	48 83 c4 10          	add    $0x10,%rsp
  404bb8:	5b                   	pop    %rbx
  404bb9:	41 5c                	pop    %r12
  404bbb:	c9                   	leaveq 
  404bbc:	c3                   	retq   
  404bbd:	90                   	nop

0000000000404bbe <_ZN11DepthReaderC2Ev>:
  404bbe:	55                   	push   %rbp
  404bbf:	48 89 e5             	mov    %rsp,%rbp
  404bc2:	48 89 7d f8          	mov    %rdi,-0x8(%rbp)
  404bc6:	48 8b 45 f8          	mov    -0x8(%rbp),%rax
  404bca:	48 c7 00 b0 5d 42 00 	movq   $0x425db0,(%rax)
  404bd1:	c9                   	leaveq 
  404bd2:	c3                   	retq   
  404bd3:	90                   	nop

0000000000404bd4 <_ZN16SceneDepthReaderC1ESsib>:
  404bd4:	55                   	push   %rbp
  404bd5:	48 89 e5             	mov    %rsp,%rbp
  404bd8:	41 54                	push   %r12
  404bda:	53                   	push   %rbx
  404bdb:	48 81 ec b0 00 00 00 	sub    $0xb0,%rsp
  404be2:	48 89 bd 58 ff ff ff 	mov    %rdi,-0xa8(%rbp)
  404be9:	48 89 b5 50 ff ff ff 	mov    %rsi,-0xb0(%rbp)
  404bf0:	89 95 4c ff ff ff    	mov    %edx,-0xb4(%rbp)
  404bf6:	89 c8                	mov    %ecx,%eax
  404bf8:	88 85 48 ff ff ff    	mov    %al,-0xb8(%rbp)
  404bfe:	48 8b 85 58 ff ff ff 	mov    -0xa8(%rbp),%rax
  404c05:	48 c7 00 00 00 00 00 	movq   $0x0,(%rax)
  404c0c:	48 8b 85 58 ff ff ff 	mov    -0xa8(%rbp),%rax
  404c13:	c6 40 08 00          	movb   $0x0,0x8(%rax)
  404c17:	48 8b 85 58 ff ff ff 	mov    -0xa8(%rbp),%rax
  404c1e:	c6 40 09 00          	movb   $0x0,0x9(%rax)
  404c22:	48 8b 85 58 ff ff ff 	mov    -0xa8(%rbp),%rax
  404c29:	c7 40 0c 00 00 00 00 	movl   $0x0,0xc(%rax)
  404c30:	48 8b 85 58 ff ff ff 	mov    -0xa8(%rbp),%rax
  404c37:	c7 40 10 00 00 00 00 	movl   $0x0,0x10(%rax)
  404c3e:	48 8b 85 58 ff ff ff 	mov    -0xa8(%rbp),%rax
  404c45:	c6 40 14 00          	movb   $0x0,0x14(%rax)
  404c49:	48 8b 85 58 ff ff ff 	mov    -0xa8(%rbp),%rax
  404c50:	48 89 c7             	mov    %rax,%rdi
  404c53:	e8 66 ff ff ff       	callq  404bbe <_ZN11DepthReaderC2Ev>
  404c58:	48 8b 85 58 ff ff ff 	mov    -0xa8(%rbp),%rax
  404c5f:	48 c7 00 50 5d 42 00 	movq   $0x425d50,(%rax)
  404c66:	48 8b 85 58 ff ff ff 	mov    -0xa8(%rbp),%rax
  404c6d:	48 8d 50 18          	lea    0x18(%rax),%rdx
  404c71:	48 8b 85 50 ff ff ff 	mov    -0xb0(%rbp),%rax
  404c78:	48 89 c6             	mov    %rax,%rsi
  404c7b:	48 89 d7             	mov    %rdx,%rdi
  404c7e:	e8 ed db ff ff       	callq  402870 <_ZNSsC1ERKSs@plt>
  404c83:	48 8b 9d 58 ff ff ff 	mov    -0xa8(%rbp),%rbx
  404c8a:	be e0 01 00 00       	mov    $0x1e0,%esi
  404c8f:	bf 80 02 00 00       	mov    $0x280,%edi
  404c94:	e8 e2 fb ff ff       	callq  40487b <_Z10make_uint2jj>
  404c99:	48 89 43 20          	mov    %rax,0x20(%rbx)
  404c9d:	be ca 59 42 00       	mov    $0x4259ca,%esi
  404ca2:	bf 20 3c 63 00       	mov    $0x633c20,%edi
  404ca7:	e8 34 dc ff ff       	callq  4028e0 <_ZStlsISt11char_traitsIcEERSt13basic_ostreamIcT_ES5_PKc@plt>
  404cac:	48 8b 95 50 ff ff ff 	mov    -0xb0(%rbp),%rdx
  404cb3:	48 89 d6             	mov    %rdx,%rsi
  404cb6:	48 89 c7             	mov    %rax,%rdi
  404cb9:	e8 02 de ff ff       	callq  402ac0 <_ZStlsIcSt11char_traitsIcESaIcEERSt13basic_ostreamIT_T0_ES7_RKSbIS4_S5_T1_E@plt>
  404cbe:	be d0 2b 40 00       	mov    $0x402bd0,%esi
  404cc3:	48 89 c7             	mov    %rax,%rdi
  404cc6:	e8 a5 de ff ff       	callq  402b70 <_ZNSolsEPFRSoS_E@plt>
  404ccb:	48 8b 85 50 ff ff ff 	mov    -0xb0(%rbp),%rax
  404cd2:	48 89 c7             	mov    %rax,%rdi
  404cd5:	e8 e6 da ff ff       	callq  4027c0 <_ZNKSs5c_strEv@plt>
  404cda:	48 8d 95 60 ff ff ff 	lea    -0xa0(%rbp),%rdx
  404ce1:	48 89 d6             	mov    %rdx,%rsi
  404ce4:	48 89 c7             	mov    %rax,%rdi
  404ce7:	e8 84 0b 02 00       	callq  425870 <__lstat>
  404cec:	8b 85 78 ff ff ff    	mov    -0x88(%rbp),%eax
  404cf2:	25 00 f0 00 00       	and    $0xf000,%eax
  404cf7:	3d 00 40 00 00       	cmp    $0x4000,%eax
  404cfc:	75 4a                	jne    404d48 <_ZN16SceneDepthReaderC1ESsib+0x174>
  404cfe:	48 8b 85 58 ff ff ff 	mov    -0xa8(%rbp),%rax
  404d05:	c6 40 09 01          	movb   $0x1,0x9(%rax)
  404d09:	48 8b 85 58 ff ff ff 	mov    -0xa8(%rbp),%rax
  404d10:	c6 40 08 01          	movb   $0x1,0x8(%rax)
  404d14:	48 8b 85 58 ff ff ff 	mov    -0xa8(%rbp),%rax
  404d1b:	c7 40 0c ff ff ff ff 	movl   $0xffffffff,0xc(%rax)
  404d22:	48 8b 85 58 ff ff ff 	mov    -0xa8(%rbp),%rax
  404d29:	8b 95 4c ff ff ff    	mov    -0xb4(%rbp),%edx
  404d2f:	89 50 10             	mov    %edx,0x10(%rax)
  404d32:	48 8b 85 58 ff ff ff 	mov    -0xa8(%rbp),%rax
  404d39:	0f b6 95 48 ff ff ff 	movzbl -0xb8(%rbp),%edx
  404d40:	88 50 14             	mov    %dl,0x14(%rax)
  404d43:	e9 88 00 00 00       	jmpq   404dd0 <_ZN16SceneDepthReaderC1ESsib+0x1fc>
  404d48:	be ca 59 42 00       	mov    $0x4259ca,%esi
  404d4d:	bf 20 3c 63 00       	mov    $0x633c20,%edi
  404d52:	e8 89 db ff ff       	callq  4028e0 <_ZStlsISt11char_traitsIcEERSt13basic_ostreamIcT_ES5_PKc@plt>
  404d57:	48 8b 95 50 ff ff ff 	mov    -0xb0(%rbp),%rdx
  404d5e:	48 89 d6             	mov    %rdx,%rsi
  404d61:	48 89 c7             	mov    %rax,%rdi
  404d64:	e8 57 dd ff ff       	callq  402ac0 <_ZStlsIcSt11char_traitsIcESaIcEERSt13basic_ostreamIT_T0_ES7_RKSbIS4_S5_T1_E@plt>
  404d69:	be d0 2b 40 00       	mov    $0x402bd0,%esi
  404d6e:	48 89 c7             	mov    %rax,%rdi
  404d71:	e8 fa dd ff ff       	callq  402b70 <_ZNSolsEPFRSoS_E@plt>
  404d76:	48 8b 85 58 ff ff ff 	mov    -0xa8(%rbp),%rax
  404d7d:	c6 40 09 00          	movb   $0x0,0x9(%rax)
  404d81:	48 8b 85 58 ff ff ff 	mov    -0xa8(%rbp),%rax
  404d88:	c6 40 08 00          	movb   $0x0,0x8(%rax)
  404d8c:	eb 42                	jmp    404dd0 <_ZN16SceneDepthReaderC1ESsib+0x1fc>
  404d8e:	89 d3                	mov    %edx,%ebx
  404d90:	49 89 c4             	mov    %rax,%r12
  404d93:	48 8b 85 58 ff ff ff 	mov    -0xa8(%rbp),%rax
  404d9a:	48 83 c0 18          	add    $0x18,%rax
  404d9e:	48 89 c7             	mov    %rax,%rdi
  404da1:	e8 5a db ff ff       	callq  402900 <_ZNSsD1Ev@plt>
  404da6:	4c 89 e0             	mov    %r12,%rax
  404da9:	48 63 d3             	movslq %ebx,%rdx
  404dac:	eb 00                	jmp    404dae <_ZN16SceneDepthReaderC1ESsib+0x1da>
  404dae:	89 d3                	mov    %edx,%ebx
  404db0:	49 89 c4             	mov    %rax,%r12
  404db3:	48 8b 85 58 ff ff ff 	mov    -0xa8(%rbp),%rax
  404dba:	48 89 c7             	mov    %rax,%rdi
  404dbd:	e8 e0 fa ff ff       	callq  4048a2 <_ZN11DepthReaderD2Ev>
  404dc2:	4c 89 e0             	mov    %r12,%rax
  404dc5:	48 63 d3             	movslq %ebx,%rdx
  404dc8:	48 89 c7             	mov    %rax,%rdi
  404dcb:	e8 90 de ff ff       	callq  402c60 <_Unwind_Resume@plt>
  404dd0:	48 81 c4 b0 00 00 00 	add    $0xb0,%rsp
  404dd7:	5b                   	pop    %rbx
  404dd8:	41 5c                	pop    %r12
  404dda:	c9                   	leaveq 
  404ddb:	c3                   	retq   

0000000000404ddc <_ZN16SceneDepthReader7getTypeEv>:
  404ddc:	55                   	push   %rbp
  404ddd:	48 89 e5             	mov    %rsp,%rbp
  404de0:	48 89 7d f8          	mov    %rdi,-0x8(%rbp)
  404de4:	b8 01 00 00 00       	mov    $0x1,%eax
  404de9:	c9                   	leaveq 
  404dea:	c3                   	retq   
  404deb:	90                   	nop

0000000000404dec <_ZN16SceneDepthReader4getKEv>:
  404dec:	55                   	push   %rbp
  404ded:	48 89 e5             	mov    %rsp,%rbp
  404df0:	48 83 ec 40          	sub    $0x40,%rsp
  404df4:	48 89 7d e8          	mov    %rdi,-0x18(%rbp)
  404df8:	f3 0f 10 1d 98 0e 02 	movss  0x20e98(%rip),%xmm3        # 425c98 <_ZZL18__gthread_active_pvE20__gthread_active_ptr+0x20>
  404dff:	00 
  404e00:	f3 0f 10 15 94 0e 02 	movss  0x20e94(%rip),%xmm2        # 425c9c <_ZZL18__gthread_active_pvE20__gthread_active_ptr+0x24>
  404e07:	00 
  404e08:	f3 0f 10 0d 90 0e 02 	movss  0x20e90(%rip),%xmm1        # 425ca0 <_ZZL18__gthread_active_pvE20__gthread_active_ptr+0x28>
  404e0f:	00 
  404e10:	f3 0f 10 05 8c 0e 02 	movss  0x20e8c(%rip),%xmm0        # 425ca4 <_ZZL18__gthread_active_pvE20__gthread_active_ptr+0x2c>
  404e17:	00 
  404e18:	e8 b5 f9 ff ff       	callq  4047d2 <_Z11make_float4ffff>
  404e1d:	66 0f d6 4d c8       	movq   %xmm1,-0x38(%rbp)
  404e22:	48 8b 45 c8          	mov    -0x38(%rbp),%rax
  404e26:	66 0f d6 45 d0       	movq   %xmm0,-0x30(%rbp)
  404e2b:	48 89 45 d8          	mov    %rax,-0x28(%rbp)
  404e2f:	48 8b 45 d0          	mov    -0x30(%rbp),%rax
  404e33:	48 89 45 f0          	mov    %rax,-0x10(%rbp)
  404e37:	48 8b 45 d8          	mov    -0x28(%rbp),%rax
  404e3b:	48 89 45 f8          	mov    %rax,-0x8(%rbp)
  404e3f:	48 8b 55 f0          	mov    -0x10(%rbp),%rdx
  404e43:	48 8b 45 f8          	mov    -0x8(%rbp),%rax
  404e47:	48 89 55 c8          	mov    %rdx,-0x38(%rbp)
  404e4b:	f3 0f 7e 45 c8       	movq   -0x38(%rbp),%xmm0
  404e50:	48 89 45 c8          	mov    %rax,-0x38(%rbp)
  404e54:	f3 0f 7e 4d c8       	movq   -0x38(%rbp),%xmm1
  404e59:	c9                   	leaveq 
  404e5a:	c3                   	retq   
  404e5b:	90                   	nop

0000000000404e5c <_ZN16SceneDepthReader12getinputSizeEv>:
  404e5c:	55                   	push   %rbp
  404e5d:	48 89 e5             	mov    %rsp,%rbp
  404e60:	48 89 7d f8          	mov    %rdi,-0x8(%rbp)
  404e64:	48 8b 45 f8          	mov    -0x8(%rbp),%rax
  404e68:	48 8b 40 20          	mov    0x20(%rax),%rax
  404e6c:	c9                   	leaveq 
  404e6d:	c3                   	retq   

0000000000404e6e <_ZN16SceneDepthReader7restartEv>:
  404e6e:	55                   	push   %rbp
  404e6f:	48 89 e5             	mov    %rsp,%rbp
  404e72:	48 89 7d f8          	mov    %rdi,-0x8(%rbp)
  404e76:	48 8b 45 f8          	mov    -0x8(%rbp),%rax
  404e7a:	c7 40 0c 00 00 00 00 	movl   $0x0,0xc(%rax)
  404e81:	c9                   	leaveq 
  404e82:	c3                   	retq   
  404e83:	90                   	nop

0000000000404e84 <_ZN16SceneDepthReader18readNextDepthFrameEP24__device_builtin__uchar3Pt>:
  404e84:	55                   	push   %rbp
  404e85:	48 89 e5             	mov    %rsp,%rbp
  404e88:	48 83 ec 30          	sub    $0x30,%rsp
  404e8c:	48 89 7d e8          	mov    %rdi,-0x18(%rbp)
  404e90:	48 89 75 e0          	mov    %rsi,-0x20(%rbp)
  404e94:	48 89 55 d8          	mov    %rdx,-0x28(%rbp)
  404e98:	48 8b 45 e8          	mov    -0x18(%rbp),%rax
  404e9c:	8b 50 20             	mov    0x20(%rax),%edx
  404e9f:	48 8b 45 e8          	mov    -0x18(%rbp),%rax
  404ea3:	8b 40 24             	mov    0x24(%rax),%eax
  404ea6:	0f af c2             	imul   %edx,%eax
  404ea9:	89 c0                	mov    %eax,%eax
  404eab:	48 c1 e0 02          	shl    $0x2,%rax
  404eaf:	48 89 c7             	mov    %rax,%rdi
  404eb2:	e8 79 d9 ff ff       	callq  402830 <malloc@plt>
  404eb7:	48 89 45 f0          	mov    %rax,-0x10(%rbp)
  404ebb:	48 8b 45 e8          	mov    -0x18(%rbp),%rax
  404ebf:	48 8b 00             	mov    (%rax),%rax
  404ec2:	48 83 c0 10          	add    $0x10,%rax
  404ec6:	48 8b 08             	mov    (%rax),%rcx
  404ec9:	48 8b 55 f0          	mov    -0x10(%rbp),%rdx
  404ecd:	48 8b 45 e8          	mov    -0x18(%rbp),%rax
  404ed1:	48 89 d6             	mov    %rdx,%rsi
  404ed4:	48 89 c7             	mov    %rax,%rdi
  404ed7:	ff d1                	callq  *%rcx
  404ed9:	88 45 fb             	mov    %al,-0x5(%rbp)
  404edc:	c7 45 fc 00 00 00 00 	movl   $0x0,-0x4(%rbp)
  404ee3:	eb 30                	jmp    404f15 <_ZN16SceneDepthReader18readNextDepthFrameEP24__device_builtin__uchar3Pt+0x91>
  404ee5:	8b 45 fc             	mov    -0x4(%rbp),%eax
  404ee8:	48 01 c0             	add    %rax,%rax
  404eeb:	48 03 45 d8          	add    -0x28(%rbp),%rax
  404eef:	8b 55 fc             	mov    -0x4(%rbp),%edx
  404ef2:	48 c1 e2 02          	shl    $0x2,%rdx
  404ef6:	48 03 55 f0          	add    -0x10(%rbp),%rdx
  404efa:	f3 0f 10 0a          	movss  (%rdx),%xmm1
  404efe:	f3 0f 10 05 a2 0d 02 	movss  0x20da2(%rip),%xmm0        # 425ca8 <_ZZL18__gthread_active_pvE20__gthread_active_ptr+0x30>
  404f05:	00 
  404f06:	f3 0f 59 c1          	mulss  %xmm1,%xmm0
  404f0a:	f3 0f 2c d0          	cvttss2si %xmm0,%edx
  404f0e:	66 89 10             	mov    %dx,(%rax)
  404f11:	83 45 fc 01          	addl   $0x1,-0x4(%rbp)
  404f15:	48 8b 45 e8          	mov    -0x18(%rbp),%rax
  404f19:	8b 50 20             	mov    0x20(%rax),%edx
  404f1c:	48 8b 45 e8          	mov    -0x18(%rbp),%rax
  404f20:	8b 40 24             	mov    0x24(%rax),%eax
  404f23:	0f af c2             	imul   %edx,%eax
  404f26:	3b 45 fc             	cmp    -0x4(%rbp),%eax
  404f29:	0f 97 c0             	seta   %al
  404f2c:	84 c0                	test   %al,%al
  404f2e:	75 b5                	jne    404ee5 <_ZN16SceneDepthReader18readNextDepthFrameEP24__device_builtin__uchar3Pt+0x61>
  404f30:	48 8b 45 f0          	mov    -0x10(%rbp),%rax
  404f34:	48 89 c7             	mov    %rax,%rdi
  404f37:	e8 d4 d9 ff ff       	callq  402910 <free@plt>
  404f3c:	0f b6 45 fb          	movzbl -0x5(%rbp),%eax
  404f40:	c9                   	leaveq 
  404f41:	c3                   	retq   

0000000000404f42 <_ZN16SceneDepthReader18readNextDepthFrameEPf>:
  404f42:	55                   	push   %rbp
  404f43:	48 89 e5             	mov    %rsp,%rbp
  404f46:	41 55                	push   %r13
  404f48:	41 54                	push   %r12
  404f4a:	53                   	push   %rbx
  404f4b:	48 81 ec d8 03 00 00 	sub    $0x3d8,%rsp
  404f52:	48 89 bd 28 fc ff ff 	mov    %rdi,-0x3d8(%rbp)
  404f59:	48 89 b5 20 fc ff ff 	mov    %rsi,-0x3e0(%rbp)
  404f60:	48 8d 85 40 fe ff ff 	lea    -0x1c0(%rbp),%rax
  404f67:	be 10 00 00 00       	mov    $0x10,%esi
  404f6c:	48 89 c7             	mov    %rax,%rdi
  404f6f:	e8 bc dc ff ff       	callq  402c30 <_ZNSt19basic_ostringstreamIcSt11char_traitsIcESaIcEEC1ESt13_Ios_Openmode@plt>
  404f74:	48 8b 85 28 fc ff ff 	mov    -0x3d8(%rbp),%rax
  404f7b:	48 89 c7             	mov    %rax,%rdi
  404f7e:	e8 bb f9 ff ff       	callq  40493e <_ZN11DepthReader14get_next_frameEv>
  404f83:	48 8b 85 28 fc ff ff 	mov    -0x3d8(%rbp),%rax
  404f8a:	8b 58 0c             	mov    0xc(%rax),%ebx
  404f8d:	bf 04 00 00 00       	mov    $0x4,%edi
  404f92:	e8 be f7 ff ff       	callq  404755 <_ZSt4setwi>
  404f97:	41 89 c4             	mov    %eax,%r12d
  404f9a:	bf 30 00 00 00       	mov    $0x30,%edi
  404f9f:	e8 a6 09 00 00       	callq  40594a <_ZSt7setfillIcESt8_SetfillIT_ES1_>
  404fa4:	41 89 c5             	mov    %eax,%r13d
  404fa7:	48 8b 85 28 fc ff ff 	mov    -0x3d8(%rbp),%rax
  404fae:	48 8d 50 18          	lea    0x18(%rax),%rdx
  404fb2:	48 8d 85 40 fe ff ff 	lea    -0x1c0(%rbp),%rax
  404fb9:	48 89 d6             	mov    %rdx,%rsi
  404fbc:	48 89 c7             	mov    %rax,%rdi
  404fbf:	e8 fc da ff ff       	callq  402ac0 <_ZStlsIcSt11char_traitsIcESaIcEERSt13basic_ostreamIT_T0_ES7_RKSbIS4_S5_T1_E@plt>
  404fc4:	be dd 59 42 00       	mov    $0x4259dd,%esi
  404fc9:	48 89 c7             	mov    %rax,%rdi
  404fcc:	e8 0f d9 ff ff       	callq  4028e0 <_ZStlsISt11char_traitsIcEERSt13basic_ostreamIcT_ES5_PKc@plt>
  404fd1:	44 89 ee             	mov    %r13d,%esi
  404fd4:	48 89 c7             	mov    %rax,%rdi
  404fd7:	e8 e4 dc ff ff       	callq  402cc0 <_ZStlsIcSt11char_traitsIcEERSt13basic_ostreamIT_T0_ES6_St8_SetfillIS3_E@plt>
  404fdc:	44 89 e6             	mov    %r12d,%esi
  404fdf:	48 89 c7             	mov    %rax,%rdi
  404fe2:	e8 c9 dc ff ff       	callq  402cb0 <_ZStlsIcSt11char_traitsIcEERSt13basic_ostreamIT_T0_ES6_St5_Setw@plt>
  404fe7:	89 de                	mov    %ebx,%esi
  404fe9:	48 89 c7             	mov    %rax,%rdi
  404fec:	e8 3f d7 ff ff       	callq  402730 <_ZNSolsEi@plt>
  404ff1:	be e8 59 42 00       	mov    $0x4259e8,%esi
  404ff6:	48 89 c7             	mov    %rax,%rdi
  404ff9:	e8 e2 d8 ff ff       	callq  4028e0 <_ZStlsISt11char_traitsIcEERSt13basic_ostreamIcT_ES5_PKc@plt>
  404ffe:	48 8d 85 30 fc ff ff 	lea    -0x3d0(%rbp),%rax
  405005:	48 89 c7             	mov    %rax,%rdi
  405008:	e8 73 d9 ff ff       	callq  402980 <_ZNSt14basic_ifstreamIcSt11char_traitsIcEEC1Ev@plt>
  40500d:	48 8d 45 b0          	lea    -0x50(%rbp),%rax
  405011:	48 8d 95 40 fe ff ff 	lea    -0x1c0(%rbp),%rdx
  405018:	48 89 d6             	mov    %rdx,%rsi
  40501b:	48 89 c7             	mov    %rax,%rdi
  40501e:	e8 3d d8 ff ff       	callq  402860 <_ZNKSt19basic_ostringstreamIcSt11char_traitsIcESaIcEE3strEv@plt>
  405023:	48 8d 45 b0          	lea    -0x50(%rbp),%rax
  405027:	48 89 c7             	mov    %rax,%rdi
  40502a:	e8 91 d7 ff ff       	callq  4027c0 <_ZNKSs5c_strEv@plt>
  40502f:	48 89 c1             	mov    %rax,%rcx
  405032:	48 8d 85 30 fc ff ff 	lea    -0x3d0(%rbp),%rax
  405039:	ba 08 00 00 00       	mov    $0x8,%edx
  40503e:	48 89 ce             	mov    %rcx,%rsi
  405041:	48 89 c7             	mov    %rax,%rdi
  405044:	e8 67 da ff ff       	callq  402ab0 <_ZNSt14basic_ifstreamIcSt11char_traitsIcEE4openEPKcSt13_Ios_Openmode@plt>
  405049:	48 8d 45 b0          	lea    -0x50(%rbp),%rax
  40504d:	48 89 c7             	mov    %rax,%rdi
  405050:	e8 ab d8 ff ff       	callq  402900 <_ZNSsD1Ev@plt>
  405055:	eb 1c                	jmp    405073 <_ZN16SceneDepthReader18readNextDepthFrameEPf+0x131>
  405057:	89 d3                	mov    %edx,%ebx
  405059:	49 89 c4             	mov    %rax,%r12
  40505c:	48 8d 45 b0          	lea    -0x50(%rbp),%rax
  405060:	48 89 c7             	mov    %rax,%rdi
  405063:	e8 98 d8 ff ff       	callq  402900 <_ZNSsD1Ev@plt>
  405068:	4c 89 e0             	mov    %r12,%rax
  40506b:	48 63 d3             	movslq %ebx,%rdx
  40506e:	e9 11 02 00 00       	jmpq   405284 <_ZN16SceneDepthReader18readNextDepthFrameEPf+0x342>
  405073:	48 8d 85 30 fc ff ff 	lea    -0x3d0(%rbp),%rax
  40507a:	48 05 00 01 00 00    	add    $0x100,%rax
  405080:	48 89 c7             	mov    %rax,%rdi
  405083:	e8 a8 d8 ff ff       	callq  402930 <_ZNKSt9basic_iosIcSt11char_traitsIcEEntEv@plt>
  405088:	84 c0                	test   %al,%al
  40508a:	0f 84 80 00 00 00    	je     405110 <_ZN16SceneDepthReader18readNextDepthFrameEPf+0x1ce>
  405090:	48 8d 45 c0          	lea    -0x40(%rbp),%rax
  405094:	48 8d 95 40 fe ff ff 	lea    -0x1c0(%rbp),%rdx
  40509b:	48 89 d6             	mov    %rdx,%rsi
  40509e:	48 89 c7             	mov    %rax,%rdi
  4050a1:	e8 ba d7 ff ff       	callq  402860 <_ZNKSt19basic_ostringstreamIcSt11char_traitsIcESaIcEE3strEv@plt>
  4050a6:	48 8d 45 c0          	lea    -0x40(%rbp),%rax
  4050aa:	48 89 c7             	mov    %rax,%rdi
  4050ad:	e8 0e d7 ff ff       	callq  4027c0 <_ZNKSs5c_strEv@plt>
  4050b2:	48 89 c3             	mov    %rax,%rbx
  4050b5:	be ef 59 42 00       	mov    $0x4259ef,%esi
  4050ba:	bf 20 3c 63 00       	mov    $0x633c20,%edi
  4050bf:	e8 1c d8 ff ff       	callq  4028e0 <_ZStlsISt11char_traitsIcEERSt13basic_ostreamIcT_ES5_PKc@plt>
  4050c4:	48 89 de             	mov    %rbx,%rsi
  4050c7:	48 89 c7             	mov    %rax,%rdi
  4050ca:	e8 11 d8 ff ff       	callq  4028e0 <_ZStlsISt11char_traitsIcEERSt13basic_ostreamIcT_ES5_PKc@plt>
  4050cf:	be 05 5a 42 00       	mov    $0x425a05,%esi
  4050d4:	48 89 c7             	mov    %rax,%rdi
  4050d7:	e8 04 d8 ff ff       	callq  4028e0 <_ZStlsISt11char_traitsIcEERSt13basic_ostreamIcT_ES5_PKc@plt>
  4050dc:	48 8d 45 c0          	lea    -0x40(%rbp),%rax
  4050e0:	48 89 c7             	mov    %rax,%rdi
  4050e3:	e8 18 d8 ff ff       	callq  402900 <_ZNSsD1Ev@plt>
  4050e8:	eb 1c                	jmp    405106 <_ZN16SceneDepthReader18readNextDepthFrameEPf+0x1c4>
  4050ea:	89 d3                	mov    %edx,%ebx
  4050ec:	49 89 c4             	mov    %rax,%r12
  4050ef:	48 8d 45 c0          	lea    -0x40(%rbp),%rax
  4050f3:	48 89 c7             	mov    %rax,%rdi
  4050f6:	e8 05 d8 ff ff       	callq  402900 <_ZNSsD1Ev@plt>
  4050fb:	4c 89 e0             	mov    %r12,%rax
  4050fe:	48 63 d3             	movslq %ebx,%rdx
  405101:	e9 7e 01 00 00       	jmpq   405284 <_ZN16SceneDepthReader18readNextDepthFrameEPf+0x342>
  405106:	bb 00 00 00 00       	mov    $0x0,%ebx
  40510b:	e9 90 01 00 00       	jmpq   4052a0 <_ZN16SceneDepthReader18readNextDepthFrameEPf+0x35e>
  405110:	c7 45 cc 00 00 00 00 	movl   $0x0,-0x34(%rbp)
  405117:	eb 39                	jmp    405152 <_ZN16SceneDepthReader18readNextDepthFrameEPf+0x210>
  405119:	48 8d 55 ac          	lea    -0x54(%rbp),%rdx
  40511d:	48 8d 85 30 fc ff ff 	lea    -0x3d0(%rbp),%rax
  405124:	48 89 d6             	mov    %rdx,%rsi
  405127:	48 89 c7             	mov    %rax,%rdi
  40512a:	e8 b1 db ff ff       	callq  402ce0 <_ZNSirsERf@plt>
  40512f:	81 7d cc ff af 04 00 	cmpl   $0x4afff,-0x34(%rbp)
  405136:	77 19                	ja     405151 <_ZN16SceneDepthReader18readNextDepthFrameEPf+0x20f>
  405138:	8b 45 cc             	mov    -0x34(%rbp),%eax
  40513b:	48 c1 e0 02          	shl    $0x2,%rax
  40513f:	48 03 85 20 fc ff ff 	add    -0x3e0(%rbp),%rax
  405146:	8b 55 ac             	mov    -0x54(%rbp),%edx
  405149:	89 10                	mov    %edx,(%rax)
  40514b:	83 45 cc 01          	addl   $0x1,-0x34(%rbp)
  40514f:	eb 01                	jmp    405152 <_ZN16SceneDepthReader18readNextDepthFrameEPf+0x210>
  405151:	90                   	nop
  405152:	48 8d 85 30 fc ff ff 	lea    -0x3d0(%rbp),%rax
  405159:	48 05 00 01 00 00    	add    $0x100,%rax
  40515f:	48 89 c7             	mov    %rax,%rdi
  405162:	e8 b9 d8 ff ff       	callq  402a20 <_ZNKSt9basic_iosIcSt11char_traitsIcEE4goodEv@plt>
  405167:	84 c0                	test   %al,%al
  405169:	75 ae                	jne    405119 <_ZN16SceneDepthReader18readNextDepthFrameEPf+0x1d7>
  40516b:	c7 45 d0 00 00 00 00 	movl   $0x0,-0x30(%rbp)
  405172:	e9 f2 00 00 00       	jmpq   405269 <_ZN16SceneDepthReader18readNextDepthFrameEPf+0x327>
  405177:	c7 45 d4 00 00 00 00 	movl   $0x0,-0x2c(%rbp)
  40517e:	e9 d0 00 00 00       	jmpq   405253 <_ZN16SceneDepthReader18readNextDepthFrameEPf+0x311>
  405183:	f3 0f 2a 45 d4       	cvtsi2ssl -0x2c(%rbp),%xmm0
  405188:	f3 0f 10 0d 1c ee 22 	movss  0x22ee1c(%rip),%xmm1        # 633fac <_ZL3_u0>
  40518f:	00 
  405190:	f3 0f 5c c1          	subss  %xmm1,%xmm0
  405194:	f3 0f 10 0d 18 ee 22 	movss  0x22ee18(%rip),%xmm1        # 633fb4 <_ZL8_focal_x>
  40519b:	00 
  40519c:	f3 0f 5e c1          	divss  %xmm1,%xmm0
  4051a0:	f3 0f 11 45 d8       	movss  %xmm0,-0x28(%rbp)
  4051a5:	f3 0f 2a 45 d0       	cvtsi2ssl -0x30(%rbp),%xmm0
  4051aa:	f3 0f 10 0d fe ed 22 	movss  0x22edfe(%rip),%xmm1        # 633fb0 <_ZL3_v0>
  4051b1:	00 
  4051b2:	f3 0f 5c c1          	subss  %xmm1,%xmm0
  4051b6:	f3 0f 10 0d fa ed 22 	movss  0x22edfa(%rip),%xmm1        # 633fb8 <_ZL8_focal_y>
  4051bd:	00 
  4051be:	f3 0f 5e c1          	divss  %xmm1,%xmm0
  4051c2:	f3 0f 11 45 dc       	movss  %xmm0,-0x24(%rbp)
  4051c7:	8b 55 d0             	mov    -0x30(%rbp),%edx
  4051ca:	89 d0                	mov    %edx,%eax
  4051cc:	c1 e0 02             	shl    $0x2,%eax
  4051cf:	01 d0                	add    %edx,%eax
  4051d1:	c1 e0 07             	shl    $0x7,%eax
  4051d4:	03 45 d4             	add    -0x2c(%rbp),%eax
  4051d7:	48 98                	cltq   
  4051d9:	48 c1 e0 02          	shl    $0x2,%rax
  4051dd:	48 89 c3             	mov    %rax,%rbx
  4051e0:	48 03 9d 20 fc ff ff 	add    -0x3e0(%rbp),%rbx
  4051e7:	8b 55 d0             	mov    -0x30(%rbp),%edx
  4051ea:	89 d0                	mov    %edx,%eax
  4051ec:	c1 e0 02             	shl    $0x2,%eax
  4051ef:	01 d0                	add    %edx,%eax
  4051f1:	c1 e0 07             	shl    $0x7,%eax
  4051f4:	03 45 d4             	add    -0x2c(%rbp),%eax
  4051f7:	48 98                	cltq   
  4051f9:	48 c1 e0 02          	shl    $0x2,%rax
  4051fd:	48 03 85 20 fc ff ff 	add    -0x3e0(%rbp),%rax
  405204:	f3 0f 10 00          	movss  (%rax),%xmm0
  405208:	f3 0f 11 85 1c fc ff 	movss  %xmm0,-0x3e4(%rbp)
  40520f:	ff 
  405210:	f3 0f 10 45 d8       	movss  -0x28(%rbp),%xmm0
  405215:	0f 28 c8             	movaps %xmm0,%xmm1
  405218:	f3 0f 59 4d d8       	mulss  -0x28(%rbp),%xmm1
  40521d:	f3 0f 10 45 dc       	movss  -0x24(%rbp),%xmm0
  405222:	f3 0f 59 45 dc       	mulss  -0x24(%rbp),%xmm0
  405227:	f3 0f 58 c1          	addss  %xmm1,%xmm0
  40522b:	f3 0f 10 0d 79 0a 02 	movss  0x20a79(%rip),%xmm1        # 425cac <_ZZL18__gthread_active_pvE20__gthread_active_ptr+0x34>
  405232:	00 
  405233:	f3 0f 58 c1          	addss  %xmm1,%xmm0
  405237:	e8 2b f5 ff ff       	callq  404767 <_ZSt4sqrtf>
  40523c:	f3 0f 10 8d 1c fc ff 	movss  -0x3e4(%rbp),%xmm1
  405243:	ff 
  405244:	f3 0f 5e c8          	divss  %xmm0,%xmm1
  405248:	0f 28 c1             	movaps %xmm1,%xmm0
  40524b:	f3 0f 11 03          	movss  %xmm0,(%rbx)
  40524f:	83 45 d4 01          	addl   $0x1,-0x2c(%rbp)
  405253:	81 7d d4 7f 02 00 00 	cmpl   $0x27f,-0x2c(%rbp)
  40525a:	0f 9e c0             	setle  %al
  40525d:	84 c0                	test   %al,%al
  40525f:	0f 85 1e ff ff ff    	jne    405183 <_ZN16SceneDepthReader18readNextDepthFrameEPf+0x241>
  405265:	83 45 d0 01          	addl   $0x1,-0x30(%rbp)
  405269:	81 7d d0 df 01 00 00 	cmpl   $0x1df,-0x30(%rbp)
  405270:	0f 9e c0             	setle  %al
  405273:	84 c0                	test   %al,%al
  405275:	0f 85 fc fe ff ff    	jne    405177 <_ZN16SceneDepthReader18readNextDepthFrameEPf+0x235>
  40527b:	83 7d cc 00          	cmpl   $0x0,-0x34(%rbp)
  40527f:	0f 95 c3             	setne  %bl
  405282:	eb 1c                	jmp    4052a0 <_ZN16SceneDepthReader18readNextDepthFrameEPf+0x35e>
  405284:	89 d3                	mov    %edx,%ebx
  405286:	49 89 c4             	mov    %rax,%r12
  405289:	48 8d 85 30 fc ff ff 	lea    -0x3d0(%rbp),%rax
  405290:	48 89 c7             	mov    %rax,%rdi
  405293:	e8 38 d7 ff ff       	callq  4029d0 <_ZNSt14basic_ifstreamIcSt11char_traitsIcEED1Ev@plt>
  405298:	4c 89 e0             	mov    %r12,%rax
  40529b:	48 63 d3             	movslq %ebx,%rdx
  40529e:	eb 2e                	jmp    4052ce <_ZN16SceneDepthReader18readNextDepthFrameEPf+0x38c>
  4052a0:	48 8d 85 30 fc ff ff 	lea    -0x3d0(%rbp),%rax
  4052a7:	48 89 c7             	mov    %rax,%rdi
  4052aa:	e8 21 d7 ff ff       	callq  4029d0 <_ZNSt14basic_ifstreamIcSt11char_traitsIcEED1Ev@plt>
  4052af:	48 8d 85 40 fe ff ff 	lea    -0x1c0(%rbp),%rax
  4052b6:	48 89 c7             	mov    %rax,%rdi
  4052b9:	e8 22 d8 ff ff       	callq  402ae0 <_ZNSt19basic_ostringstreamIcSt11char_traitsIcESaIcEED1Ev@plt>
  4052be:	89 d8                	mov    %ebx,%eax
  4052c0:	48 81 c4 d8 03 00 00 	add    $0x3d8,%rsp
  4052c7:	5b                   	pop    %rbx
  4052c8:	41 5c                	pop    %r12
  4052ca:	41 5d                	pop    %r13
  4052cc:	c9                   	leaveq 
  4052cd:	c3                   	retq   
  4052ce:	89 d3                	mov    %edx,%ebx
  4052d0:	49 89 c4             	mov    %rax,%r12
  4052d3:	48 8d 85 40 fe ff ff 	lea    -0x1c0(%rbp),%rax
  4052da:	48 89 c7             	mov    %rax,%rdi
  4052dd:	e8 fe d7 ff ff       	callq  402ae0 <_ZNSt19basic_ostringstreamIcSt11char_traitsIcESaIcEED1Ev@plt>
  4052e2:	4c 89 e0             	mov    %r12,%rax
  4052e5:	48 63 d3             	movslq %ebx,%rdx
  4052e8:	48 89 c7             	mov    %rax,%rdi
  4052eb:	e8 70 d9 ff ff       	callq  402c60 <_Unwind_Resume@plt>

00000000004052f0 <_ZN14RawDepthReaderC1ESsib>:
  4052f0:	55                   	push   %rbp
  4052f1:	48 89 e5             	mov    %rsp,%rbp
  4052f4:	41 54                	push   %r12
  4052f6:	53                   	push   %rbx
  4052f7:	48 83 ec 30          	sub    $0x30,%rsp
  4052fb:	48 89 7d d8          	mov    %rdi,-0x28(%rbp)
  4052ff:	48 89 75 d0          	mov    %rsi,-0x30(%rbp)
  405303:	89 55 cc             	mov    %edx,-0x34(%rbp)
  405306:	89 c8                	mov    %ecx,%eax
  405308:	88 45 c8             	mov    %al,-0x38(%rbp)
  40530b:	48 8b 45 d8          	mov    -0x28(%rbp),%rax
  40530f:	48 c7 00 00 00 00 00 	movq   $0x0,(%rax)
  405316:	48 8b 45 d8          	mov    -0x28(%rbp),%rax
  40531a:	c6 40 08 00          	movb   $0x0,0x8(%rax)
  40531e:	48 8b 45 d8          	mov    -0x28(%rbp),%rax
  405322:	c6 40 09 00          	movb   $0x0,0x9(%rax)
  405326:	48 8b 45 d8          	mov    -0x28(%rbp),%rax
  40532a:	c7 40 0c 00 00 00 00 	movl   $0x0,0xc(%rax)
  405331:	48 8b 45 d8          	mov    -0x28(%rbp),%rax
  405335:	c7 40 10 00 00 00 00 	movl   $0x0,0x10(%rax)
  40533c:	48 8b 45 d8          	mov    -0x28(%rbp),%rax
  405340:	c6 40 14 00          	movb   $0x0,0x14(%rax)
  405344:	48 8b 45 d8          	mov    -0x28(%rbp),%rax
  405348:	48 89 c7             	mov    %rax,%rdi
  40534b:	e8 6e f8 ff ff       	callq  404bbe <_ZN11DepthReaderC2Ev>
  405350:	48 8b 45 d8          	mov    -0x28(%rbp),%rax
  405354:	48 c7 00 f0 5c 42 00 	movq   $0x425cf0,(%rax)
  40535b:	48 8b 45 d0          	mov    -0x30(%rbp),%rax
  40535f:	48 89 c7             	mov    %rax,%rdi
  405362:	e8 59 d4 ff ff       	callq  4027c0 <_ZNKSs5c_strEv@plt>
  405367:	be 08 5a 42 00       	mov    $0x425a08,%esi
  40536c:	48 89 c7             	mov    %rax,%rdi
  40536f:	e8 cc d4 ff ff       	callq  402840 <fopen@plt>
  405374:	48 8b 55 d8          	mov    -0x28(%rbp),%rdx
  405378:	48 89 42 18          	mov    %rax,0x18(%rdx)
  40537c:	48 8b 45 d8          	mov    -0x28(%rbp),%rax
  405380:	48 8b 40 18          	mov    0x18(%rax),%rax
  405384:	48 8b 55 d8          	mov    -0x28(%rbp),%rdx
  405388:	48 8d 5a 20          	lea    0x20(%rdx),%rbx
  40538c:	48 89 c1             	mov    %rax,%rcx
  40538f:	ba 01 00 00 00       	mov    $0x1,%edx
  405394:	be 08 00 00 00       	mov    $0x8,%esi
  405399:	48 89 df             	mov    %rbx,%rdi
  40539c:	e8 ef d6 ff ff       	callq  402a90 <fread@plt>
  4053a1:	48 89 45 e8          	mov    %rax,-0x18(%rbp)
  4053a5:	48 8b 45 d8          	mov    -0x28(%rbp),%rax
  4053a9:	c6 40 09 00          	movb   $0x0,0x9(%rax)
  4053ad:	48 8b 45 d8          	mov    -0x28(%rbp),%rax
  4053b1:	c6 40 08 00          	movb   $0x0,0x8(%rax)
  4053b5:	48 83 7d e8 01       	cmpq   $0x1,-0x18(%rbp)
  4053ba:	74 1e                	je     4053da <_ZN14RawDepthReaderC1ESsib+0xea>
  4053bc:	be 0b 5a 42 00       	mov    $0x425a0b,%esi
  4053c1:	bf 20 3c 63 00       	mov    $0x633c20,%edi
  4053c6:	e8 15 d5 ff ff       	callq  4028e0 <_ZStlsISt11char_traitsIcEERSt13basic_ostreamIcT_ES5_PKc@plt>
  4053cb:	be d0 2b 40 00       	mov    $0x402bd0,%esi
  4053d0:	48 89 c7             	mov    %rax,%rdi
  4053d3:	e8 98 d7 ff ff       	callq  402b70 <_ZNSolsEPFRSoS_E@plt>
  4053d8:	eb 6b                	jmp    405445 <_ZN14RawDepthReaderC1ESsib+0x155>
  4053da:	48 8b 45 d8          	mov    -0x28(%rbp),%rax
  4053de:	c6 40 09 01          	movb   $0x1,0x9(%rax)
  4053e2:	48 8b 45 d8          	mov    -0x28(%rbp),%rax
  4053e6:	c6 40 08 01          	movb   $0x1,0x8(%rax)
  4053ea:	48 8b 45 d8          	mov    -0x28(%rbp),%rax
  4053ee:	c7 40 0c ff ff ff ff 	movl   $0xffffffff,0xc(%rax)
  4053f5:	48 8b 45 d8          	mov    -0x28(%rbp),%rax
  4053f9:	8b 55 cc             	mov    -0x34(%rbp),%edx
  4053fc:	89 50 10             	mov    %edx,0x10(%rax)
  4053ff:	48 8b 45 d8          	mov    -0x28(%rbp),%rax
  405403:	0f b6 55 c8          	movzbl -0x38(%rbp),%edx
  405407:	88 50 14             	mov    %dl,0x14(%rax)
  40540a:	48 8b 45 d8          	mov    -0x28(%rbp),%rax
  40540e:	48 8b 40 18          	mov    0x18(%rax),%rax
  405412:	ba 00 00 00 00       	mov    $0x0,%edx
  405417:	be 00 00 00 00       	mov    $0x0,%esi
  40541c:	48 89 c7             	mov    %rax,%rdi
  40541f:	e8 ac d3 ff ff       	callq  4027d0 <fseek@plt>
  405424:	eb 1f                	jmp    405445 <_ZN14RawDepthReaderC1ESsib+0x155>
  405426:	89 d3                	mov    %edx,%ebx
  405428:	49 89 c4             	mov    %rax,%r12
  40542b:	48 8b 45 d8          	mov    -0x28(%rbp),%rax
  40542f:	48 89 c7             	mov    %rax,%rdi
  405432:	e8 6b f4 ff ff       	callq  4048a2 <_ZN11DepthReaderD2Ev>
  405437:	4c 89 e0             	mov    %r12,%rax
  40543a:	48 63 d3             	movslq %ebx,%rdx
  40543d:	48 89 c7             	mov    %rax,%rdi
  405440:	e8 1b d8 ff ff       	callq  402c60 <_Unwind_Resume@plt>
  405445:	48 83 c4 30          	add    $0x30,%rsp
  405449:	5b                   	pop    %rbx
  40544a:	41 5c                	pop    %r12
  40544c:	c9                   	leaveq 
  40544d:	c3                   	retq   

000000000040544e <_ZN14RawDepthReader7getTypeEv>:
  40544e:	55                   	push   %rbp
  40544f:	48 89 e5             	mov    %rsp,%rbp
  405452:	48 89 7d f8          	mov    %rdi,-0x8(%rbp)
  405456:	b8 00 00 00 00       	mov    $0x0,%eax
  40545b:	c9                   	leaveq 
  40545c:	c3                   	retq   
  40545d:	90                   	nop

000000000040545e <_ZN14RawDepthReader18readNextDepthFrameEP24__device_builtin__uchar3Pt>:
  40545e:	55                   	push   %rbp
  40545f:	48 89 e5             	mov    %rsp,%rbp
  405462:	53                   	push   %rbx
  405463:	48 83 ec 48          	sub    $0x48,%rsp
  405467:	48 89 7d c8          	mov    %rdi,-0x38(%rbp)
  40546b:	48 89 75 c0          	mov    %rsi,-0x40(%rbp)
  40546f:	48 89 55 b8          	mov    %rdx,-0x48(%rbp)
  405473:	c7 45 e4 00 00 00 00 	movl   $0x0,-0x1c(%rbp)
  40547a:	c7 45 e8 00 00 00 00 	movl   $0x0,-0x18(%rbp)
  405481:	48 8b 45 c8          	mov    -0x38(%rbp),%rax
  405485:	48 89 c7             	mov    %rax,%rdi
  405488:	e8 b1 f4 ff ff       	callq  40493e <_ZN11DepthReader14get_next_frameEv>
  40548d:	48 8b 45 c8          	mov    -0x38(%rbp),%rax
  405491:	8b 50 20             	mov    0x20(%rax),%edx
  405494:	48 8b 45 c8          	mov    -0x38(%rbp),%rax
  405498:	8b 40 24             	mov    0x24(%rax),%eax
  40549b:	0f af c2             	imul   %edx,%eax
  40549e:	89 c0                	mov    %eax,%eax
  4054a0:	48 83 c0 08          	add    $0x8,%rax
  4054a4:	8d 0c 00             	lea    (%rax,%rax,1),%ecx
  4054a7:	48 8b 45 c8          	mov    -0x38(%rbp),%rax
  4054ab:	8b 50 20             	mov    0x20(%rax),%edx
  4054ae:	48 8b 45 c8          	mov    -0x38(%rbp),%rax
  4054b2:	8b 40 24             	mov    0x24(%rax),%eax
  4054b5:	0f af d0             	imul   %eax,%edx
  4054b8:	89 d0                	mov    %edx,%eax
  4054ba:	01 c0                	add    %eax,%eax
  4054bc:	01 d0                	add    %edx,%eax
  4054be:	8d 04 01             	lea    (%rcx,%rax,1),%eax
  4054c1:	89 45 ec             	mov    %eax,-0x14(%rbp)
  4054c4:	48 8b 45 c8          	mov    -0x38(%rbp),%rax
  4054c8:	8b 40 0c             	mov    0xc(%rax),%eax
  4054cb:	0f af 45 ec          	imul   -0x14(%rbp),%eax
  4054cf:	89 c1                	mov    %eax,%ecx
  4054d1:	48 8b 45 c8          	mov    -0x38(%rbp),%rax
  4054d5:	48 8b 40 18          	mov    0x18(%rax),%rax
  4054d9:	ba 00 00 00 00       	mov    $0x0,%edx
  4054de:	48 89 ce             	mov    %rcx,%rsi
  4054e1:	48 89 c7             	mov    %rax,%rdi
  4054e4:	e8 e7 d2 ff ff       	callq  4027d0 <fseek@plt>
  4054e9:	48 83 7d b8 00       	cmpq   $0x0,-0x48(%rbp)
  4054ee:	74 72                	je     405562 <_ZN14RawDepthReader18readNextDepthFrameEP24__device_builtin__uchar3Pt+0x104>
  4054f0:	48 8b 45 c8          	mov    -0x38(%rbp),%rax
  4054f4:	48 8b 50 18          	mov    0x18(%rax),%rdx
  4054f8:	48 8d 45 d0          	lea    -0x30(%rbp),%rax
  4054fc:	48 89 d1             	mov    %rdx,%rcx
  4054ff:	ba 01 00 00 00       	mov    $0x1,%edx
  405504:	be 08 00 00 00       	mov    $0x8,%esi
  405509:	48 89 c7             	mov    %rax,%rdi
  40550c:	e8 7f d5 ff ff       	callq  402a90 <fread@plt>
  405511:	89 c2                	mov    %eax,%edx
  405513:	8b 45 e4             	mov    -0x1c(%rbp),%eax
  405516:	8d 04 02             	lea    (%rdx,%rax,1),%eax
  405519:	89 45 e4             	mov    %eax,-0x1c(%rbp)
  40551c:	48 8b 45 c8          	mov    -0x38(%rbp),%rax
  405520:	48 8b 48 18          	mov    0x18(%rax),%rcx
  405524:	8b 55 d0             	mov    -0x30(%rbp),%edx
  405527:	8b 45 d4             	mov    -0x2c(%rbp),%eax
  40552a:	0f af c2             	imul   %edx,%eax
  40552d:	89 c2                	mov    %eax,%edx
  40552f:	48 8b 45 b8          	mov    -0x48(%rbp),%rax
  405533:	be 02 00 00 00       	mov    $0x2,%esi
  405538:	48 89 c7             	mov    %rax,%rdi
  40553b:	e8 50 d5 ff ff       	callq  402a90 <fread@plt>
  405540:	89 c2                	mov    %eax,%edx
  405542:	8b 45 e4             	mov    -0x1c(%rbp),%eax
  405545:	8d 04 02             	lea    (%rdx,%rax,1),%eax
  405548:	89 45 e4             	mov    %eax,-0x1c(%rbp)
  40554b:	8b 55 d0             	mov    -0x30(%rbp),%edx
  40554e:	8b 45 d4             	mov    -0x2c(%rbp),%eax
  405551:	0f af d0             	imul   %eax,%edx
  405554:	8b 45 e8             	mov    -0x18(%rbp),%eax
  405557:	8d 04 02             	lea    (%rdx,%rax,1),%eax
  40555a:	83 c0 01             	add    $0x1,%eax
  40555d:	89 45 e8             	mov    %eax,-0x18(%rbp)
  405560:	eb 7c                	jmp    4055de <_ZN14RawDepthReader18readNextDepthFrameEP24__device_builtin__uchar3Pt+0x180>
  405562:	48 8b 45 c8          	mov    -0x38(%rbp),%rax
  405566:	48 8b 50 18          	mov    0x18(%rax),%rdx
  40556a:	48 8d 45 d0          	lea    -0x30(%rbp),%rax
  40556e:	48 89 d1             	mov    %rdx,%rcx
  405571:	ba 01 00 00 00       	mov    $0x1,%edx
  405576:	be 08 00 00 00       	mov    $0x8,%esi
  40557b:	48 89 c7             	mov    %rax,%rdi
  40557e:	e8 0d d5 ff ff       	callq  402a90 <fread@plt>
  405583:	89 c2                	mov    %eax,%edx
  405585:	8b 45 e4             	mov    -0x1c(%rbp),%eax
  405588:	8d 04 02             	lea    (%rdx,%rax,1),%eax
  40558b:	89 45 e4             	mov    %eax,-0x1c(%rbp)
  40558e:	8b 55 d0             	mov    -0x30(%rbp),%edx
  405591:	8b 45 d4             	mov    -0x2c(%rbp),%eax
  405594:	0f af d0             	imul   %eax,%edx
  405597:	8b 45 e4             	mov    -0x1c(%rbp),%eax
  40559a:	8d 04 02             	lea    (%rdx,%rax,1),%eax
  40559d:	89 45 e4             	mov    %eax,-0x1c(%rbp)
  4055a0:	8b 55 d0             	mov    -0x30(%rbp),%edx
  4055a3:	8b 45 d4             	mov    -0x2c(%rbp),%eax
  4055a6:	0f af c2             	imul   %edx,%eax
  4055a9:	89 c0                	mov    %eax,%eax
  4055ab:	48 01 c0             	add    %rax,%rax
  4055ae:	48 89 c1             	mov    %rax,%rcx
  4055b1:	48 8b 45 c8          	mov    -0x38(%rbp),%rax
  4055b5:	48 8b 40 18          	mov    0x18(%rax),%rax
  4055b9:	ba 01 00 00 00       	mov    $0x1,%edx
  4055be:	48 89 ce             	mov    %rcx,%rsi
  4055c1:	48 89 c7             	mov    %rax,%rdi
  4055c4:	e8 07 d2 ff ff       	callq  4027d0 <fseek@plt>
  4055c9:	8b 55 d0             	mov    -0x30(%rbp),%edx
  4055cc:	8b 45 d4             	mov    -0x2c(%rbp),%eax
  4055cf:	0f af d0             	imul   %eax,%edx
  4055d2:	8b 45 e8             	mov    -0x18(%rbp),%eax
  4055d5:	8d 04 02             	lea    (%rdx,%rax,1),%eax
  4055d8:	83 c0 01             	add    $0x1,%eax
  4055db:	89 45 e8             	mov    %eax,-0x18(%rbp)
  4055de:	48 83 7d c0 00       	cmpq   $0x0,-0x40(%rbp)
  4055e3:	74 75                	je     40565a <_ZN14RawDepthReader18readNextDepthFrameEP24__device_builtin__uchar3Pt+0x1fc>
  4055e5:	48 8b 45 c8          	mov    -0x38(%rbp),%rax
  4055e9:	48 8b 50 18          	mov    0x18(%rax),%rdx
  4055ed:	48 8d 45 d0          	lea    -0x30(%rbp),%rax
  4055f1:	48 89 d1             	mov    %rdx,%rcx
  4055f4:	ba 01 00 00 00       	mov    $0x1,%edx
  4055f9:	be 08 00 00 00       	mov    $0x8,%esi
  4055fe:	48 89 c7             	mov    %rax,%rdi
  405601:	e8 8a d4 ff ff       	callq  402a90 <fread@plt>
  405606:	89 c2                	mov    %eax,%edx
  405608:	8b 45 e4             	mov    -0x1c(%rbp),%eax
  40560b:	8d 04 02             	lea    (%rdx,%rax,1),%eax
  40560e:	89 45 e4             	mov    %eax,-0x1c(%rbp)
  405611:	48 8b 45 c8          	mov    -0x38(%rbp),%rax
  405615:	48 8b 48 18          	mov    0x18(%rax),%rcx
  405619:	8b 55 d0             	mov    -0x30(%rbp),%edx
  40561c:	8b 45 d4             	mov    -0x2c(%rbp),%eax
  40561f:	0f af c2             	imul   %edx,%eax
  405622:	89 c2                	mov    %eax,%edx
  405624:	48 8b 45 c0          	mov    -0x40(%rbp),%rax
  405628:	be 03 00 00 00       	mov    $0x3,%esi
  40562d:	48 89 c7             	mov    %rax,%rdi
  405630:	e8 5b d4 ff ff       	callq  402a90 <fread@plt>
  405635:	89 c2                	mov    %eax,%edx
  405637:	8b 45 e4             	mov    -0x1c(%rbp),%eax
  40563a:	8d 04 02             	lea    (%rdx,%rax,1),%eax
  40563d:	89 45 e4             	mov    %eax,-0x1c(%rbp)
  405640:	8b 55 d0             	mov    -0x30(%rbp),%edx
  405643:	8b 45 d4             	mov    -0x2c(%rbp),%eax
  405646:	0f af d0             	imul   %eax,%edx
  405649:	8b 45 e8             	mov    -0x18(%rbp),%eax
  40564c:	8d 04 02             	lea    (%rdx,%rax,1),%eax
  40564f:	83 c0 01             	add    $0x1,%eax
  405652:	89 45 e8             	mov    %eax,-0x18(%rbp)
  405655:	e9 82 00 00 00       	jmpq   4056dc <_ZN14RawDepthReader18readNextDepthFrameEP24__device_builtin__uchar3Pt+0x27e>
  40565a:	48 8b 45 c8          	mov    -0x38(%rbp),%rax
  40565e:	48 8b 50 18          	mov    0x18(%rax),%rdx
  405662:	48 8d 45 d0          	lea    -0x30(%rbp),%rax
  405666:	48 89 d1             	mov    %rdx,%rcx
  405669:	ba 01 00 00 00       	mov    $0x1,%edx
  40566e:	be 08 00 00 00       	mov    $0x8,%esi
  405673:	48 89 c7             	mov    %rax,%rdi
  405676:	e8 15 d4 ff ff       	callq  402a90 <fread@plt>
  40567b:	89 c2                	mov    %eax,%edx
  40567d:	8b 45 e4             	mov    -0x1c(%rbp),%eax
  405680:	8d 04 02             	lea    (%rdx,%rax,1),%eax
  405683:	89 45 e4             	mov    %eax,-0x1c(%rbp)
  405686:	8b 55 d0             	mov    -0x30(%rbp),%edx
  405689:	8b 45 d4             	mov    -0x2c(%rbp),%eax
  40568c:	0f af d0             	imul   %eax,%edx
  40568f:	8b 45 e4             	mov    -0x1c(%rbp),%eax
  405692:	8d 04 02             	lea    (%rdx,%rax,1),%eax
  405695:	89 45 e4             	mov    %eax,-0x1c(%rbp)
  405698:	8b 55 d0             	mov    -0x30(%rbp),%edx
  40569b:	8b 45 d4             	mov    -0x2c(%rbp),%eax
  40569e:	0f af c2             	imul   %edx,%eax
  4056a1:	89 c2                	mov    %eax,%edx
  4056a3:	48 89 d0             	mov    %rdx,%rax
  4056a6:	48 01 c0             	add    %rax,%rax
  4056a9:	48 01 d0             	add    %rdx,%rax
  4056ac:	48 89 c1             	mov    %rax,%rcx
  4056af:	48 8b 45 c8          	mov    -0x38(%rbp),%rax
  4056b3:	48 8b 40 18          	mov    0x18(%rax),%rax
  4056b7:	ba 01 00 00 00       	mov    $0x1,%edx
  4056bc:	48 89 ce             	mov    %rcx,%rsi
  4056bf:	48 89 c7             	mov    %rax,%rdi
  4056c2:	e8 09 d1 ff ff       	callq  4027d0 <fseek@plt>
  4056c7:	8b 55 d0             	mov    -0x30(%rbp),%edx
  4056ca:	8b 45 d4             	mov    -0x2c(%rbp),%eax
  4056cd:	0f af d0             	imul   %eax,%edx
  4056d0:	8b 45 e8             	mov    -0x18(%rbp),%eax
  4056d3:	8d 04 02             	lea    (%rdx,%rax,1),%eax
  4056d6:	83 c0 01             	add    $0x1,%eax
  4056d9:	89 45 e8             	mov    %eax,-0x18(%rbp)
  4056dc:	8b 45 e4             	mov    -0x1c(%rbp),%eax
  4056df:	3b 45 e8             	cmp    -0x18(%rbp),%eax
  4056e2:	74 4d                	je     405731 <_ZN14RawDepthReader18readNextDepthFrameEP24__device_builtin__uchar3Pt+0x2d3>
  4056e4:	83 7d e4 00          	cmpl   $0x0,-0x1c(%rbp)
  4056e8:	75 07                	jne    4056f1 <_ZN14RawDepthReader18readNextDepthFrameEP24__device_builtin__uchar3Pt+0x293>
  4056ea:	bb 1d 5a 42 00       	mov    $0x425a1d,%ebx
  4056ef:	eb 05                	jmp    4056f6 <_ZN14RawDepthReader18readNextDepthFrameEP24__device_builtin__uchar3Pt+0x298>
  4056f1:	bb 1e 5a 42 00       	mov    $0x425a1e,%ebx
  4056f6:	be 2e 5a 42 00       	mov    $0x425a2e,%esi
  4056fb:	bf a0 3d 63 00       	mov    $0x633da0,%edi
  405700:	e8 db d1 ff ff       	callq  4028e0 <_ZStlsISt11char_traitsIcEERSt13basic_ostreamIcT_ES5_PKc@plt>
  405705:	48 89 de             	mov    %rbx,%rsi
  405708:	48 89 c7             	mov    %rax,%rdi
  40570b:	e8 d0 d1 ff ff       	callq  4028e0 <_ZStlsISt11char_traitsIcEERSt13basic_ostreamIcT_ES5_PKc@plt>
  405710:	be 3a 5a 42 00       	mov    $0x425a3a,%esi
  405715:	48 89 c7             	mov    %rax,%rdi
  405718:	e8 c3 d1 ff ff       	callq  4028e0 <_ZStlsISt11char_traitsIcEERSt13basic_ostreamIcT_ES5_PKc@plt>
  40571d:	be d0 2b 40 00       	mov    $0x402bd0,%esi
  405722:	48 89 c7             	mov    %rax,%rdi
  405725:	e8 46 d4 ff ff       	callq  402b70 <_ZNSolsEPFRSoS_E@plt>
  40572a:	b8 00 00 00 00       	mov    $0x0,%eax
  40572f:	eb 05                	jmp    405736 <_ZN14RawDepthReader18readNextDepthFrameEP24__device_builtin__uchar3Pt+0x2d8>
  405731:	b8 01 00 00 00       	mov    $0x1,%eax
  405736:	48 83 c4 48          	add    $0x48,%rsp
  40573a:	5b                   	pop    %rbx
  40573b:	c9                   	leaveq 
  40573c:	c3                   	retq   
  40573d:	90                   	nop

000000000040573e <_ZN14RawDepthReader7restartEv>:
  40573e:	55                   	push   %rbp
  40573f:	48 89 e5             	mov    %rsp,%rbp
  405742:	48 83 ec 10          	sub    $0x10,%rsp
  405746:	48 89 7d f8          	mov    %rdi,-0x8(%rbp)
  40574a:	48 8b 45 f8          	mov    -0x8(%rbp),%rax
  40574e:	c7 40 0c ff ff ff ff 	movl   $0xffffffff,0xc(%rax)
  405755:	48 8b 45 f8          	mov    -0x8(%rbp),%rax
  405759:	48 8b 40 18          	mov    0x18(%rax),%rax
  40575d:	48 89 c7             	mov    %rax,%rdi
  405760:	e8 7b d2 ff ff       	callq  4029e0 <rewind@plt>
  405765:	c9                   	leaveq 
  405766:	c3                   	retq   
  405767:	90                   	nop

0000000000405768 <_ZN14RawDepthReader18readNextDepthFrameEPf>:
  405768:	55                   	push   %rbp
  405769:	48 89 e5             	mov    %rsp,%rbp
  40576c:	48 83 ec 20          	sub    $0x20,%rsp
  405770:	48 89 7d e8          	mov    %rdi,-0x18(%rbp)
  405774:	48 89 75 e0          	mov    %rsi,-0x20(%rbp)
  405778:	48 8b 45 e8          	mov    -0x18(%rbp),%rax
  40577c:	8b 50 20             	mov    0x20(%rax),%edx
  40577f:	48 8b 45 e8          	mov    -0x18(%rbp),%rax
  405783:	8b 40 24             	mov    0x24(%rax),%eax
  405786:	0f af c2             	imul   %edx,%eax
  405789:	89 c0                	mov    %eax,%eax
  40578b:	48 01 c0             	add    %rax,%rax
  40578e:	48 89 c7             	mov    %rax,%rdi
  405791:	e8 9a d0 ff ff       	callq  402830 <malloc@plt>
  405796:	48 89 45 f0          	mov    %rax,-0x10(%rbp)
  40579a:	48 8b 45 e8          	mov    -0x18(%rbp),%rax
  40579e:	48 8b 00             	mov    (%rax),%rax
  4057a1:	48 83 c0 18          	add    $0x18,%rax
  4057a5:	48 8b 08             	mov    (%rax),%rcx
  4057a8:	48 8b 55 f0          	mov    -0x10(%rbp),%rdx
  4057ac:	48 8b 45 e8          	mov    -0x18(%rbp),%rax
  4057b0:	be 00 00 00 00       	mov    $0x0,%esi
  4057b5:	48 89 c7             	mov    %rax,%rdi
  4057b8:	ff d1                	callq  *%rcx
  4057ba:	88 45 fb             	mov    %al,-0x5(%rbp)
  4057bd:	c7 45 fc 00 00 00 00 	movl   $0x0,-0x4(%rbp)
  4057c4:	eb 33                	jmp    4057f9 <_ZN14RawDepthReader18readNextDepthFrameEPf+0x91>
  4057c6:	8b 45 fc             	mov    -0x4(%rbp),%eax
  4057c9:	48 c1 e0 02          	shl    $0x2,%rax
  4057cd:	48 03 45 e0          	add    -0x20(%rbp),%rax
  4057d1:	8b 55 fc             	mov    -0x4(%rbp),%edx
  4057d4:	48 01 d2             	add    %rdx,%rdx
  4057d7:	48 03 55 f0          	add    -0x10(%rbp),%rdx
  4057db:	0f b7 12             	movzwl (%rdx),%edx
  4057de:	0f b7 d2             	movzwl %dx,%edx
  4057e1:	f3 0f 2a c2          	cvtsi2ss %edx,%xmm0
  4057e5:	f3 0f 10 0d bb 04 02 	movss  0x204bb(%rip),%xmm1        # 425ca8 <_ZZL18__gthread_active_pvE20__gthread_active_ptr+0x30>
  4057ec:	00 
  4057ed:	f3 0f 5e c1          	divss  %xmm1,%xmm0
  4057f1:	f3 0f 11 00          	movss  %xmm0,(%rax)
  4057f5:	83 45 fc 01          	addl   $0x1,-0x4(%rbp)
  4057f9:	48 8b 45 e8          	mov    -0x18(%rbp),%rax
  4057fd:	8b 50 20             	mov    0x20(%rax),%edx
  405800:	48 8b 45 e8          	mov    -0x18(%rbp),%rax
  405804:	8b 40 24             	mov    0x24(%rax),%eax
  405807:	0f af c2             	imul   %edx,%eax
  40580a:	3b 45 fc             	cmp    -0x4(%rbp),%eax
  40580d:	0f 97 c0             	seta   %al
  405810:	84 c0                	test   %al,%al
  405812:	75 b2                	jne    4057c6 <_ZN14RawDepthReader18readNextDepthFrameEPf+0x5e>
  405814:	48 8b 45 f0          	mov    -0x10(%rbp),%rax
  405818:	48 89 c7             	mov    %rax,%rdi
  40581b:	e8 f0 d0 ff ff       	callq  402910 <free@plt>
  405820:	0f b6 45 fb          	movzbl -0x5(%rbp),%eax
  405824:	c9                   	leaveq 
  405825:	c3                   	retq   

0000000000405826 <_ZN14RawDepthReader12getinputSizeEv>:
  405826:	55                   	push   %rbp
  405827:	48 89 e5             	mov    %rsp,%rbp
  40582a:	48 89 7d f8          	mov    %rdi,-0x8(%rbp)
  40582e:	48 8b 45 f8          	mov    -0x8(%rbp),%rax
  405832:	48 8b 40 20          	mov    0x20(%rax),%rax
  405836:	c9                   	leaveq 
  405837:	c3                   	retq   

0000000000405838 <_ZN14RawDepthReader4getKEv>:
  405838:	55                   	push   %rbp
  405839:	48 89 e5             	mov    %rsp,%rbp
  40583c:	48 83 ec 40          	sub    $0x40,%rsp
  405840:	48 89 7d e8          	mov    %rdi,-0x18(%rbp)
  405844:	f3 0f 10 1d 64 04 02 	movss  0x20464(%rip),%xmm3        # 425cb0 <_ZZL18__gthread_active_pvE20__gthread_active_ptr+0x38>
  40584b:	00 
  40584c:	f3 0f 10 15 60 04 02 	movss  0x20460(%rip),%xmm2        # 425cb4 <_ZZL18__gthread_active_pvE20__gthread_active_ptr+0x3c>
  405853:	00 
  405854:	f3 0f 10 0d 5c 04 02 	movss  0x2045c(%rip),%xmm1        # 425cb8 <_ZZL18__gthread_active_pvE20__gthread_active_ptr+0x40>
  40585b:	00 
  40585c:	f3 0f 10 05 54 04 02 	movss  0x20454(%rip),%xmm0        # 425cb8 <_ZZL18__gthread_active_pvE20__gthread_active_ptr+0x40>
  405863:	00 
  405864:	e8 69 ef ff ff       	callq  4047d2 <_Z11make_float4ffff>
  405869:	66 0f d6 4d c8       	movq   %xmm1,-0x38(%rbp)
  40586e:	48 8b 45 c8          	mov    -0x38(%rbp),%rax
  405872:	66 0f d6 45 d0       	movq   %xmm0,-0x30(%rbp)
  405877:	48 89 45 d8          	mov    %rax,-0x28(%rbp)
  40587b:	48 8b 45 d0          	mov    -0x30(%rbp),%rax
  40587f:	48 89 45 f0          	mov    %rax,-0x10(%rbp)
  405883:	48 8b 45 d8          	mov    -0x28(%rbp),%rax
  405887:	48 89 45 f8          	mov    %rax,-0x8(%rbp)
  40588b:	48 8b 55 f0          	mov    -0x10(%rbp),%rdx
  40588f:	48 8b 45 f8          	mov    -0x8(%rbp),%rax
  405893:	48 89 55 c8          	mov    %rdx,-0x38(%rbp)
  405897:	f3 0f 7e 45 c8       	movq   -0x38(%rbp),%xmm0
  40589c:	48 89 45 c8          	mov    %rax,-0x38(%rbp)
  4058a0:	f3 0f 7e 4d c8       	movq   -0x38(%rbp),%xmm1
  4058a5:	c9                   	leaveq 
  4058a6:	c3                   	retq   
  4058a7:	90                   	nop

00000000004058a8 <_ZN4TooN8OperatorINS_8Internal7ScalarsINS1_3OneEEEEC1Ev>:
  4058a8:	55                   	push   %rbp
  4058a9:	48 89 e5             	mov    %rsp,%rbp
  4058ac:	48 83 ec 10          	sub    $0x10,%rsp
  4058b0:	48 89 7d f8          	mov    %rdi,-0x8(%rbp)
  4058b4:	48 8b 45 f8          	mov    -0x8(%rbp),%rax
  4058b8:	48 89 c7             	mov    %rax,%rdi
  4058bb:	e8 d8 ef ff ff       	callq  404898 <_ZN4TooN8Internal3OneC1Ev>
  4058c0:	c9                   	leaveq 
  4058c1:	c3                   	retq   

00000000004058c2 <_ZN4TooN8OperatorINS_8Internal8IdentityINS1_3OneEEEEC1Ev>:
  4058c2:	55                   	push   %rbp
  4058c3:	48 89 e5             	mov    %rsp,%rbp
  4058c6:	48 83 ec 10          	sub    $0x10,%rsp
  4058ca:	48 89 7d f8          	mov    %rdi,-0x8(%rbp)
  4058ce:	48 8b 45 f8          	mov    -0x8(%rbp),%rax
  4058d2:	48 89 c7             	mov    %rax,%rdi
  4058d5:	e8 be ef ff ff       	callq  404898 <_ZN4TooN8Internal3OneC1Ev>
  4058da:	c9                   	leaveq 
  4058db:	c3                   	retq   

00000000004058dc <_ZStplIcSt11char_traitsIcESaIcEESbIT_T0_T1_ERKS6_S8_>:
  4058dc:	55                   	push   %rbp
  4058dd:	48 89 e5             	mov    %rsp,%rbp
  4058e0:	41 55                	push   %r13
  4058e2:	41 54                	push   %r12
  4058e4:	53                   	push   %rbx
  4058e5:	48 83 ec 28          	sub    $0x28,%rsp
  4058e9:	48 89 fb             	mov    %rdi,%rbx
  4058ec:	48 89 75 c8          	mov    %rsi,-0x38(%rbp)
  4058f0:	48 89 55 c0          	mov    %rdx,-0x40(%rbp)
  4058f4:	48 89 d8             	mov    %rbx,%rax
  4058f7:	48 8b 55 c8          	mov    -0x38(%rbp),%rdx
  4058fb:	48 89 d6             	mov    %rdx,%rsi
  4058fe:	48 89 c7             	mov    %rax,%rdi
  405901:	e8 6a cf ff ff       	callq  402870 <_ZNSsC1ERKSs@plt>
  405906:	48 89 d8             	mov    %rbx,%rax
  405909:	48 8b 55 c0          	mov    -0x40(%rbp),%rdx
  40590d:	48 89 d6             	mov    %rdx,%rsi
  405910:	48 89 c7             	mov    %rax,%rdi
  405913:	e8 78 d3 ff ff       	callq  402c90 <_ZNSs6appendERKSs@plt>
  405918:	eb 1f                	jmp    405939 <_ZStplIcSt11char_traitsIcESaIcEESbIT_T0_T1_ERKS6_S8_+0x5d>
  40591a:	41 89 d4             	mov    %edx,%r12d
  40591d:	49 89 c5             	mov    %rax,%r13
  405920:	48 89 d8             	mov    %rbx,%rax
  405923:	48 89 c7             	mov    %rax,%rdi
  405926:	e8 d5 cf ff ff       	callq  402900 <_ZNSsD1Ev@plt>
  40592b:	4c 89 e8             	mov    %r13,%rax
  40592e:	49 63 d4             	movslq %r12d,%rdx
  405931:	48 89 c7             	mov    %rax,%rdi
  405934:	e8 27 d3 ff ff       	callq  402c60 <_Unwind_Resume@plt>
  405939:	48 89 d8             	mov    %rbx,%rax
  40593c:	48 89 d8             	mov    %rbx,%rax
  40593f:	48 83 c4 28          	add    $0x28,%rsp
  405943:	5b                   	pop    %rbx
  405944:	41 5c                	pop    %r12
  405946:	41 5d                	pop    %r13
  405948:	c9                   	leaveq 
  405949:	c3                   	retq   

000000000040594a <_ZSt7setfillIcESt8_SetfillIT_ES1_>:
  40594a:	55                   	push   %rbp
  40594b:	48 89 e5             	mov    %rsp,%rbp
  40594e:	89 f8                	mov    %edi,%eax
  405950:	88 45 ec             	mov    %al,-0x14(%rbp)
  405953:	0f b6 45 ec          	movzbl -0x14(%rbp),%eax
  405957:	88 45 ff             	mov    %al,-0x1(%rbp)
  40595a:	0f b6 45 ff          	movzbl -0x1(%rbp),%eax
  40595e:	c9                   	leaveq 
  40595f:	c3                   	retq   

0000000000405960 <_ZNSt6vectorISsSaISsEE9push_backERKSs>:
  405960:	55                   	push   %rbp
  405961:	48 89 e5             	mov    %rsp,%rbp
  405964:	48 83 ec 10          	sub    $0x10,%rsp
  405968:	48 89 7d f8          	mov    %rdi,-0x8(%rbp)
  40596c:	48 89 75 f0          	mov    %rsi,-0x10(%rbp)
  405970:	48 8b 45 f8          	mov    -0x8(%rbp),%rax
  405974:	48 8b 50 08          	mov    0x8(%rax),%rdx
  405978:	48 8b 45 f8          	mov    -0x8(%rbp),%rax
  40597c:	48 8b 40 10          	mov    0x10(%rax),%rax
  405980:	48 39 c2             	cmp    %rax,%rdx
  405983:	74 31                	je     4059b6 <_ZNSt6vectorISsSaISsEE9push_backERKSs+0x56>
  405985:	48 8b 45 f8          	mov    -0x8(%rbp),%rax
  405989:	48 8b 48 08          	mov    0x8(%rax),%rcx
  40598d:	48 8b 45 f8          	mov    -0x8(%rbp),%rax
  405991:	48 8b 55 f0          	mov    -0x10(%rbp),%rdx
  405995:	48 89 ce             	mov    %rcx,%rsi
  405998:	48 89 c7             	mov    %rax,%rdi
  40599b:	e8 4a 02 00 00       	callq  405bea <_ZN9__gnu_cxx13new_allocatorISsE9constructEPSsRKSs>
  4059a0:	48 8b 45 f8          	mov    -0x8(%rbp),%rax
  4059a4:	48 8b 40 08          	mov    0x8(%rax),%rax
  4059a8:	48 8d 50 08          	lea    0x8(%rax),%rdx
  4059ac:	48 8b 45 f8          	mov    -0x8(%rbp),%rax
  4059b0:	48 89 50 08          	mov    %rdx,0x8(%rax)
  4059b4:	eb 22                	jmp    4059d8 <_ZNSt6vectorISsSaISsEE9push_backERKSs+0x78>
  4059b6:	48 8b 45 f8          	mov    -0x8(%rbp),%rax
  4059ba:	48 89 c7             	mov    %rax,%rdi
  4059bd:	e8 c2 05 00 00       	callq  405f84 <_ZNSt6vectorISsSaISsEE3endEv>
  4059c2:	48 89 c1             	mov    %rax,%rcx
  4059c5:	48 8b 55 f0          	mov    -0x10(%rbp),%rdx
  4059c9:	48 8b 45 f8          	mov    -0x8(%rbp),%rax
  4059cd:	48 89 ce             	mov    %rcx,%rsi
  4059d0:	48 89 c7             	mov    %rax,%rdi
  4059d3:	e8 8a 02 00 00       	callq  405c62 <_ZNSt6vectorISsSaISsEE13_M_insert_auxEN9__gnu_cxx17__normal_iteratorIPSsS1_EERKSs>
  4059d8:	c9                   	leaveq 
  4059d9:	c3                   	retq   

00000000004059da <_ZNSt6vectorISsSaISsEEC1Ev>:
  4059da:	55                   	push   %rbp
  4059db:	48 89 e5             	mov    %rsp,%rbp
  4059de:	48 83 ec 10          	sub    $0x10,%rsp
  4059e2:	48 89 7d f8          	mov    %rdi,-0x8(%rbp)
  4059e6:	48 8b 45 f8          	mov    -0x8(%rbp),%rax
  4059ea:	48 89 c7             	mov    %rax,%rdi
  4059ed:	e8 d6 05 00 00       	callq  405fc8 <_ZNSt12_Vector_baseISsSaISsEEC2Ev>
  4059f2:	c9                   	leaveq 
  4059f3:	c3                   	retq   

00000000004059f4 <_ZNSt6vectorISsSaISsEED1Ev>:
  4059f4:	55                   	push   %rbp
  4059f5:	48 89 e5             	mov    %rsp,%rbp
  4059f8:	41 54                	push   %r12
  4059fa:	53                   	push   %rbx
  4059fb:	48 83 ec 10          	sub    $0x10,%rsp
  4059ff:	48 89 7d e8          	mov    %rdi,-0x18(%rbp)
  405a03:	48 8b 45 e8          	mov    -0x18(%rbp),%rax
  405a07:	48 89 c7             	mov    %rax,%rdi
  405a0a:	e8 4f 06 00 00       	callq  40605e <_ZNSt12_Vector_baseISsSaISsEE19_M_get_Tp_allocatorEv>
  405a0f:	48 89 c2             	mov    %rax,%rdx
  405a12:	48 8b 45 e8          	mov    -0x18(%rbp),%rax
  405a16:	48 8b 48 08          	mov    0x8(%rax),%rcx
  405a1a:	48 8b 45 e8          	mov    -0x18(%rbp),%rax
  405a1e:	48 8b 00             	mov    (%rax),%rax
  405a21:	48 89 ce             	mov    %rcx,%rsi
  405a24:	48 89 c7             	mov    %rax,%rdi
  405a27:	e8 40 06 00 00       	callq  40606c <_ZSt8_DestroyIPSsSsEvT_S1_RSaIT0_E>
  405a2c:	48 8b 45 e8          	mov    -0x18(%rbp),%rax
  405a30:	48 89 c7             	mov    %rax,%rdi
  405a33:	e8 aa 05 00 00       	callq  405fe2 <_ZNSt12_Vector_baseISsSaISsEED2Ev>
  405a38:	48 83 c4 10          	add    $0x10,%rsp
  405a3c:	5b                   	pop    %rbx
  405a3d:	41 5c                	pop    %r12
  405a3f:	c9                   	leaveq 
  405a40:	c3                   	retq   
  405a41:	89 d3                	mov    %edx,%ebx
  405a43:	49 89 c4             	mov    %rax,%r12
  405a46:	48 8b 45 e8          	mov    -0x18(%rbp),%rax
  405a4a:	48 89 c7             	mov    %rax,%rdi
  405a4d:	e8 90 05 00 00       	callq  405fe2 <_ZNSt12_Vector_baseISsSaISsEED2Ev>
  405a52:	4c 89 e0             	mov    %r12,%rax
  405a55:	48 63 d3             	movslq %ebx,%rdx
  405a58:	48 89 c7             	mov    %rax,%rdi
  405a5b:	e8 00 d2 ff ff       	callq  402c60 <_Unwind_Resume@plt>

0000000000405a60 <_ZSteqIcSt11char_traitsIcESaIcEEbRKSbIT_T0_T1_EPKS3_>:
  405a60:	55                   	push   %rbp
  405a61:	48 89 e5             	mov    %rsp,%rbp
  405a64:	48 83 ec 10          	sub    $0x10,%rsp
  405a68:	48 89 7d f8          	mov    %rdi,-0x8(%rbp)
  405a6c:	48 89 75 f0          	mov    %rsi,-0x10(%rbp)
  405a70:	48 8b 55 f0          	mov    -0x10(%rbp),%rdx
  405a74:	48 8b 45 f8          	mov    -0x8(%rbp),%rax
  405a78:	48 89 d6             	mov    %rdx,%rsi
  405a7b:	48 89 c7             	mov    %rax,%rdi
  405a7e:	e8 1d cf ff ff       	callq  4029a0 <_ZNKSs7compareEPKc@plt>
  405a83:	85 c0                	test   %eax,%eax
  405a85:	0f 94 c0             	sete   %al
  405a88:	c9                   	leaveq 
  405a89:	c3                   	retq   

0000000000405a8a <_ZNKSt6vectorISsSaISsEE4sizeEv>:
  405a8a:	55                   	push   %rbp
  405a8b:	48 89 e5             	mov    %rsp,%rbp
  405a8e:	48 89 7d f8          	mov    %rdi,-0x8(%rbp)
  405a92:	48 8b 45 f8          	mov    -0x8(%rbp),%rax
  405a96:	48 8b 40 08          	mov    0x8(%rax),%rax
  405a9a:	48 89 c2             	mov    %rax,%rdx
  405a9d:	48 8b 45 f8          	mov    -0x8(%rbp),%rax
  405aa1:	48 8b 00             	mov    (%rax),%rax
  405aa4:	48 89 d1             	mov    %rdx,%rcx
  405aa7:	48 29 c1             	sub    %rax,%rcx
  405aaa:	48 89 c8             	mov    %rcx,%rax
  405aad:	48 c1 f8 03          	sar    $0x3,%rax
  405ab1:	c9                   	leaveq 
  405ab2:	c3                   	retq   
  405ab3:	90                   	nop

0000000000405ab4 <_ZNSt6vectorISsSaISsEEixEm>:
  405ab4:	55                   	push   %rbp
  405ab5:	48 89 e5             	mov    %rsp,%rbp
  405ab8:	48 89 7d f8          	mov    %rdi,-0x8(%rbp)
  405abc:	48 89 75 f0          	mov    %rsi,-0x10(%rbp)
  405ac0:	48 8b 45 f8          	mov    -0x8(%rbp),%rax
  405ac4:	48 8b 00             	mov    (%rax),%rax
  405ac7:	48 8b 55 f0          	mov    -0x10(%rbp),%rdx
  405acb:	48 c1 e2 03          	shl    $0x3,%rdx
  405acf:	48 01 d0             	add    %rdx,%rax
  405ad2:	c9                   	leaveq 
  405ad3:	c3                   	retq   

0000000000405ad4 <_ZStplIcSt11char_traitsIcESaIcEESbIT_T0_T1_ERKS6_PKS3_>:
  405ad4:	55                   	push   %rbp
  405ad5:	48 89 e5             	mov    %rsp,%rbp
  405ad8:	41 55                	push   %r13
  405ada:	41 54                	push   %r12
  405adc:	53                   	push   %rbx
  405add:	48 83 ec 28          	sub    $0x28,%rsp
  405ae1:	48 89 fb             	mov    %rdi,%rbx
  405ae4:	48 89 75 c8          	mov    %rsi,-0x38(%rbp)
  405ae8:	48 89 55 c0          	mov    %rdx,-0x40(%rbp)
  405aec:	48 89 d8             	mov    %rbx,%rax
  405aef:	48 8b 55 c8          	mov    -0x38(%rbp),%rdx
  405af3:	48 89 d6             	mov    %rdx,%rsi
  405af6:	48 89 c7             	mov    %rax,%rdi
  405af9:	e8 72 cd ff ff       	callq  402870 <_ZNSsC1ERKSs@plt>
  405afe:	48 89 d8             	mov    %rbx,%rax
  405b01:	48 8b 55 c0          	mov    -0x40(%rbp),%rdx
  405b05:	48 89 d6             	mov    %rdx,%rsi
  405b08:	48 89 c7             	mov    %rax,%rdi
  405b0b:	e8 10 d0 ff ff       	callq  402b20 <_ZNSs6appendEPKc@plt>
  405b10:	eb 1f                	jmp    405b31 <_ZStplIcSt11char_traitsIcESaIcEESbIT_T0_T1_ERKS6_PKS3_+0x5d>
  405b12:	41 89 d4             	mov    %edx,%r12d
  405b15:	49 89 c5             	mov    %rax,%r13
  405b18:	48 89 d8             	mov    %rbx,%rax
  405b1b:	48 89 c7             	mov    %rax,%rdi
  405b1e:	e8 dd cd ff ff       	callq  402900 <_ZNSsD1Ev@plt>
  405b23:	4c 89 e8             	mov    %r13,%rax
  405b26:	49 63 d4             	movslq %r12d,%rdx
  405b29:	48 89 c7             	mov    %rax,%rdi
  405b2c:	e8 2f d1 ff ff       	callq  402c60 <_Unwind_Resume@plt>
  405b31:	48 89 d8             	mov    %rbx,%rax
  405b34:	48 89 d8             	mov    %rbx,%rax
  405b37:	48 83 c4 28          	add    $0x28,%rsp
  405b3b:	5b                   	pop    %rbx
  405b3c:	41 5c                	pop    %r12
  405b3e:	41 5d                	pop    %r13
  405b40:	c9                   	leaveq 
  405b41:	c3                   	retq   

0000000000405b42 <_ZStneIcSt11char_traitsIcESaIcEEbRKSbIT_T0_T1_EPKS3_>:
  405b42:	55                   	push   %rbp
  405b43:	48 89 e5             	mov    %rsp,%rbp
  405b46:	48 83 ec 10          	sub    $0x10,%rsp
  405b4a:	48 89 7d f8          	mov    %rdi,-0x8(%rbp)
  405b4e:	48 89 75 f0          	mov    %rsi,-0x10(%rbp)
  405b52:	48 8b 55 f0          	mov    -0x10(%rbp),%rdx
  405b56:	48 8b 45 f8          	mov    -0x8(%rbp),%rax
  405b5a:	48 89 d6             	mov    %rdx,%rsi
  405b5d:	48 89 c7             	mov    %rax,%rdi
  405b60:	e8 fb fe ff ff       	callq  405a60 <_ZSteqIcSt11char_traitsIcESaIcEEbRKSbIT_T0_T1_EPKS3_>
  405b65:	83 f0 01             	xor    $0x1,%eax
  405b68:	c9                   	leaveq 
  405b69:	c3                   	retq   

0000000000405b6a <_ZSt9transformIN9__gnu_cxx17__normal_iteratorIPcSsEES3_PFiiEET0_T_S7_S6_T1_>:
  405b6a:	55                   	push   %rbp
  405b6b:	48 89 e5             	mov    %rsp,%rbp
  405b6e:	53                   	push   %rbx
  405b6f:	48 83 ec 48          	sub    $0x48,%rsp
  405b73:	48 89 7d e0          	mov    %rdi,-0x20(%rbp)
  405b77:	48 89 75 d0          	mov    %rsi,-0x30(%rbp)
  405b7b:	48 89 55 c0          	mov    %rdx,-0x40(%rbp)
  405b7f:	48 89 4d b8          	mov    %rcx,-0x48(%rbp)
  405b83:	eb 43                	jmp    405bc8 <_ZSt9transformIN9__gnu_cxx17__normal_iteratorIPcSsEES3_PFiiEET0_T_S7_S6_T1_+0x5e>
  405b85:	48 8d 45 c0          	lea    -0x40(%rbp),%rax
  405b89:	48 89 c7             	mov    %rax,%rdi
  405b8c:	e8 6f 05 00 00       	callq  406100 <_ZNK9__gnu_cxx17__normal_iteratorIPcSsEdeEv>
  405b91:	48 89 c3             	mov    %rax,%rbx
  405b94:	48 8d 45 e0          	lea    -0x20(%rbp),%rax
  405b98:	48 89 c7             	mov    %rax,%rdi
  405b9b:	e8 60 05 00 00       	callq  406100 <_ZNK9__gnu_cxx17__normal_iteratorIPcSsEdeEv>
  405ba0:	0f b6 00             	movzbl (%rax),%eax
  405ba3:	0f be c0             	movsbl %al,%eax
  405ba6:	48 8b 55 b8          	mov    -0x48(%rbp),%rdx
  405baa:	89 c7                	mov    %eax,%edi
  405bac:	ff d2                	callq  *%rdx
  405bae:	88 03                	mov    %al,(%rbx)
  405bb0:	48 8d 45 e0          	lea    -0x20(%rbp),%rax
  405bb4:	48 89 c7             	mov    %rax,%rdi
  405bb7:	e8 24 05 00 00       	callq  4060e0 <_ZN9__gnu_cxx17__normal_iteratorIPcSsEppEv>
  405bbc:	48 8d 45 c0          	lea    -0x40(%rbp),%rax
  405bc0:	48 89 c7             	mov    %rax,%rdi
  405bc3:	e8 18 05 00 00       	callq  4060e0 <_ZN9__gnu_cxx17__normal_iteratorIPcSsEppEv>
  405bc8:	48 8d 55 d0          	lea    -0x30(%rbp),%rdx
  405bcc:	48 8d 45 e0          	lea    -0x20(%rbp),%rax
  405bd0:	48 89 d6             	mov    %rdx,%rsi
  405bd3:	48 89 c7             	mov    %rax,%rdi
  405bd6:	e8 c9 04 00 00       	callq  4060a4 <_ZN9__gnu_cxxneIPcSsEEbRKNS_17__normal_iteratorIT_T0_EES7_>
  405bdb:	84 c0                	test   %al,%al
  405bdd:	75 a6                	jne    405b85 <_ZSt9transformIN9__gnu_cxx17__normal_iteratorIPcSsEES3_PFiiEET0_T_S7_S6_T1_+0x1b>
  405bdf:	48 8b 45 c0          	mov    -0x40(%rbp),%rax
  405be3:	48 83 c4 48          	add    $0x48,%rsp
  405be7:	5b                   	pop    %rbx
  405be8:	c9                   	leaveq 
  405be9:	c3                   	retq   

0000000000405bea <_ZN9__gnu_cxx13new_allocatorISsE9constructEPSsRKSs>:
  405bea:	55                   	push   %rbp
  405beb:	48 89 e5             	mov    %rsp,%rbp
  405bee:	41 56                	push   %r14
  405bf0:	41 55                	push   %r13
  405bf2:	41 54                	push   %r12
  405bf4:	53                   	push   %rbx
  405bf5:	48 83 ec 20          	sub    $0x20,%rsp
  405bf9:	48 89 7d d8          	mov    %rdi,-0x28(%rbp)
  405bfd:	48 89 75 d0          	mov    %rsi,-0x30(%rbp)
  405c01:	48 89 55 c8          	mov    %rdx,-0x38(%rbp)
  405c05:	4c 8b 65 d0          	mov    -0x30(%rbp),%r12
  405c09:	4c 89 e6             	mov    %r12,%rsi
  405c0c:	bf 08 00 00 00       	mov    $0x8,%edi
  405c11:	e8 0b eb ff ff       	callq  404721 <_ZnwmPv>
  405c16:	48 89 c3             	mov    %rax,%rbx
  405c19:	48 89 d8             	mov    %rbx,%rax
  405c1c:	48 85 c0             	test   %rax,%rax
  405c1f:	74 33                	je     405c54 <_ZN9__gnu_cxx13new_allocatorISsE9constructEPSsRKSs+0x6a>
  405c21:	48 89 d8             	mov    %rbx,%rax
  405c24:	48 8b 55 c8          	mov    -0x38(%rbp),%rdx
  405c28:	48 89 d6             	mov    %rdx,%rsi
  405c2b:	48 89 c7             	mov    %rax,%rdi
  405c2e:	e8 3d cc ff ff       	callq  402870 <_ZNSsC1ERKSs@plt>
  405c33:	eb 1f                	jmp    405c54 <_ZN9__gnu_cxx13new_allocatorISsE9constructEPSsRKSs+0x6a>
  405c35:	41 89 d5             	mov    %edx,%r13d
  405c38:	49 89 c6             	mov    %rax,%r14
  405c3b:	4c 89 e6             	mov    %r12,%rsi
  405c3e:	48 89 df             	mov    %rbx,%rdi
  405c41:	e8 ed ea ff ff       	callq  404733 <_ZdlPvS_>
  405c46:	4c 89 f0             	mov    %r14,%rax
  405c49:	49 63 d5             	movslq %r13d,%rdx
  405c4c:	48 89 c7             	mov    %rax,%rdi
  405c4f:	e8 0c d0 ff ff       	callq  402c60 <_Unwind_Resume@plt>
  405c54:	48 83 c4 20          	add    $0x20,%rsp
  405c58:	5b                   	pop    %rbx
  405c59:	41 5c                	pop    %r12
  405c5b:	41 5d                	pop    %r13
  405c5d:	41 5e                	pop    %r14
  405c5f:	c9                   	leaveq 
  405c60:	c3                   	retq   
  405c61:	90                   	nop

0000000000405c62 <_ZNSt6vectorISsSaISsEE13_M_insert_auxEN9__gnu_cxx17__normal_iteratorIPSsS1_EERKSs>:
  405c62:	55                   	push   %rbp
  405c63:	48 89 e5             	mov    %rsp,%rbp
  405c66:	41 54                	push   %r12
  405c68:	53                   	push   %rbx
  405c69:	48 83 ec 60          	sub    $0x60,%rsp
  405c6d:	48 89 7d a8          	mov    %rdi,-0x58(%rbp)
  405c71:	48 89 75 a0          	mov    %rsi,-0x60(%rbp)
  405c75:	48 89 55 98          	mov    %rdx,-0x68(%rbp)
  405c79:	48 8b 45 a8          	mov    -0x58(%rbp),%rax
  405c7d:	48 8b 50 08          	mov    0x8(%rax),%rdx
  405c81:	48 8b 45 a8          	mov    -0x58(%rbp),%rax
  405c85:	48 8b 40 10          	mov    0x10(%rax),%rax
  405c89:	48 39 c2             	cmp    %rax,%rdx
  405c8c:	0f 84 ca 00 00 00    	je     405d5c <_ZNSt6vectorISsSaISsEE13_M_insert_auxEN9__gnu_cxx17__normal_iteratorIPSsS1_EERKSs+0xfa>
  405c92:	48 8b 45 a8          	mov    -0x58(%rbp),%rax
  405c96:	48 8b 40 08          	mov    0x8(%rax),%rax
  405c9a:	48 8d 50 f8          	lea    -0x8(%rax),%rdx
  405c9e:	48 8b 45 a8          	mov    -0x58(%rbp),%rax
  405ca2:	48 8b 48 08          	mov    0x8(%rax),%rcx
  405ca6:	48 8b 45 a8          	mov    -0x58(%rbp),%rax
  405caa:	48 89 ce             	mov    %rcx,%rsi
  405cad:	48 89 c7             	mov    %rax,%rdi
  405cb0:	e8 35 ff ff ff       	callq  405bea <_ZN9__gnu_cxx13new_allocatorISsE9constructEPSsRKSs>
  405cb5:	48 8b 45 a8          	mov    -0x58(%rbp),%rax
  405cb9:	48 8b 40 08          	mov    0x8(%rax),%rax
  405cbd:	48 8d 50 08          	lea    0x8(%rax),%rdx
  405cc1:	48 8b 45 a8          	mov    -0x58(%rbp),%rax
  405cc5:	48 89 50 08          	mov    %rdx,0x8(%rax)
  405cc9:	48 8b 55 98          	mov    -0x68(%rbp),%rdx
  405ccd:	48 8d 45 b0          	lea    -0x50(%rbp),%rax
  405cd1:	48 89 d6             	mov    %rdx,%rsi
  405cd4:	48 89 c7             	mov    %rax,%rdi
  405cd7:	e8 94 cb ff ff       	callq  402870 <_ZNSsC1ERKSs@plt>
  405cdc:	48 8b 45 a8          	mov    -0x58(%rbp),%rax
  405ce0:	48 8b 40 08          	mov    0x8(%rax),%rax
  405ce4:	4c 8d 60 f8          	lea    -0x8(%rax),%r12
  405ce8:	48 8b 45 a8          	mov    -0x58(%rbp),%rax
  405cec:	48 8b 40 08          	mov    0x8(%rax),%rax
  405cf0:	48 8d 58 f0          	lea    -0x10(%rax),%rbx
  405cf4:	48 8d 45 a0          	lea    -0x60(%rbp),%rax
  405cf8:	48 89 c7             	mov    %rax,%rdi
  405cfb:	e8 12 04 00 00       	callq  406112 <_ZNK9__gnu_cxx17__normal_iteratorIPSsSt6vectorISsSaISsEEE4baseEv>
  405d00:	48 8b 00             	mov    (%rax),%rax
  405d03:	4c 89 e2             	mov    %r12,%rdx
  405d06:	48 89 de             	mov    %rbx,%rsi
  405d09:	48 89 c7             	mov    %rax,%rdi
  405d0c:	e8 0f 04 00 00       	callq  406120 <_ZSt13copy_backwardIPSsS0_ET0_T_S2_S1_>
  405d11:	48 8d 45 a0          	lea    -0x60(%rbp),%rax
  405d15:	48 89 c7             	mov    %rax,%rdi
  405d18:	e8 49 04 00 00       	callq  406166 <_ZNK9__gnu_cxx17__normal_iteratorIPSsSt6vectorISsSaISsEEEdeEv>
  405d1d:	48 8d 55 b0          	lea    -0x50(%rbp),%rdx
  405d21:	48 89 d6             	mov    %rdx,%rsi
  405d24:	48 89 c7             	mov    %rax,%rdi
  405d27:	e8 54 cf ff ff       	callq  402c80 <_ZNSsaSERKSs@plt>
  405d2c:	48 8d 45 b0          	lea    -0x50(%rbp),%rax
  405d30:	48 89 c7             	mov    %rax,%rdi
  405d33:	e8 c8 cb ff ff       	callq  402900 <_ZNSsD1Ev@plt>
  405d38:	e9 3e 02 00 00       	jmpq   405f7b <_ZNSt6vectorISsSaISsEE13_M_insert_auxEN9__gnu_cxx17__normal_iteratorIPSsS1_EERKSs+0x319>
  405d3d:	89 d3                	mov    %edx,%ebx
  405d3f:	49 89 c4             	mov    %rax,%r12
  405d42:	48 8d 45 b0          	lea    -0x50(%rbp),%rax
  405d46:	48 89 c7             	mov    %rax,%rdi
  405d49:	e8 b2 cb ff ff       	callq  402900 <_ZNSsD1Ev@plt>
  405d4e:	4c 89 e0             	mov    %r12,%rax
  405d51:	48 63 d3             	movslq %ebx,%rdx
  405d54:	48 89 c7             	mov    %rax,%rdi
  405d57:	e8 04 cf ff ff       	callq  402c60 <_Unwind_Resume@plt>
  405d5c:	48 8b 45 a8          	mov    -0x58(%rbp),%rax
  405d60:	ba aa 5b 42 00       	mov    $0x425baa,%edx
  405d65:	be 01 00 00 00       	mov    $0x1,%esi
  405d6a:	48 89 c7             	mov    %rax,%rdi
  405d6d:	e8 06 04 00 00       	callq  406178 <_ZNKSt6vectorISsSaISsEE12_M_check_lenEmPKc>
  405d72:	48 89 45 d0          	mov    %rax,-0x30(%rbp)
  405d76:	48 8b 45 a8          	mov    -0x58(%rbp),%rax
  405d7a:	48 89 c7             	mov    %rax,%rdi
  405d7d:	e8 c0 04 00 00       	callq  406242 <_ZNSt6vectorISsSaISsEE5beginEv>
  405d82:	48 89 45 c0          	mov    %rax,-0x40(%rbp)
  405d86:	48 8d 55 c0          	lea    -0x40(%rbp),%rdx
  405d8a:	48 8d 45 a0          	lea    -0x60(%rbp),%rax
  405d8e:	48 89 d6             	mov    %rdx,%rsi
  405d91:	48 89 c7             	mov    %rax,%rdi
  405d94:	e8 ce 04 00 00       	callq  406267 <_ZN9__gnu_cxxmiIPSsSt6vectorISsSaISsEEEENS_17__normal_iteratorIT_T0_E15difference_typeERKS8_SB_>
  405d99:	48 89 45 d8          	mov    %rax,-0x28(%rbp)
  405d9d:	48 8b 45 a8          	mov    -0x58(%rbp),%rax
  405da1:	48 8b 55 d0          	mov    -0x30(%rbp),%rdx
  405da5:	48 89 d6             	mov    %rdx,%rsi
  405da8:	48 89 c7             	mov    %rax,%rdi
  405dab:	e8 fe 04 00 00       	callq  4062ae <_ZNSt12_Vector_baseISsSaISsEE11_M_allocateEm>
  405db0:	48 89 45 e0          	mov    %rax,-0x20(%rbp)
  405db4:	48 8b 45 e0          	mov    -0x20(%rbp),%rax
  405db8:	48 89 45 e8          	mov    %rax,-0x18(%rbp)
  405dbc:	48 8b 45 d8          	mov    -0x28(%rbp),%rax
  405dc0:	48 c1 e0 03          	shl    $0x3,%rax
  405dc4:	48 89 c1             	mov    %rax,%rcx
  405dc7:	48 03 4d e0          	add    -0x20(%rbp),%rcx
  405dcb:	48 8b 45 a8          	mov    -0x58(%rbp),%rax
  405dcf:	48 8b 55 98          	mov    -0x68(%rbp),%rdx
  405dd3:	48 89 ce             	mov    %rcx,%rsi
  405dd6:	48 89 c7             	mov    %rax,%rdi
  405dd9:	e8 0c fe ff ff       	callq  405bea <_ZN9__gnu_cxx13new_allocatorISsE9constructEPSsRKSs>
  405dde:	48 c7 45 e8 00 00 00 	movq   $0x0,-0x18(%rbp)
  405de5:	00 
  405de6:	48 8b 45 a8          	mov    -0x58(%rbp),%rax
  405dea:	48 89 c7             	mov    %rax,%rdi
  405ded:	e8 6c 02 00 00       	callq  40605e <_ZNSt12_Vector_baseISsSaISsEE19_M_get_Tp_allocatorEv>
  405df2:	49 89 c4             	mov    %rax,%r12
  405df5:	48 8d 45 a0          	lea    -0x60(%rbp),%rax
  405df9:	48 89 c7             	mov    %rax,%rdi
  405dfc:	e8 11 03 00 00       	callq  406112 <_ZNK9__gnu_cxx17__normal_iteratorIPSsSt6vectorISsSaISsEEE4baseEv>
  405e01:	48 8b 18             	mov    (%rax),%rbx
  405e04:	48 8b 45 a8          	mov    -0x58(%rbp),%rax
  405e08:	48 8b 00             	mov    (%rax),%rax
  405e0b:	48 8b 55 e0          	mov    -0x20(%rbp),%rdx
  405e0f:	4c 89 e1             	mov    %r12,%rcx
  405e12:	48 89 de             	mov    %rbx,%rsi
  405e15:	48 89 c7             	mov    %rax,%rdi
  405e18:	e8 c9 04 00 00       	callq  4062e6 <_ZSt22__uninitialized_move_aIPSsS0_SaISsEET0_T_S3_S2_RT1_>
  405e1d:	48 89 45 e8          	mov    %rax,-0x18(%rbp)
  405e21:	48 83 45 e8 08       	addq   $0x8,-0x18(%rbp)
  405e26:	48 8b 45 a8          	mov    -0x58(%rbp),%rax
  405e2a:	48 89 c7             	mov    %rax,%rdi
  405e2d:	e8 2c 02 00 00       	callq  40605e <_ZNSt12_Vector_baseISsSaISsEE19_M_get_Tp_allocatorEv>
  405e32:	49 89 c4             	mov    %rax,%r12
  405e35:	48 8b 45 a8          	mov    -0x58(%rbp),%rax
  405e39:	48 8b 58 08          	mov    0x8(%rax),%rbx
  405e3d:	48 8d 45 a0          	lea    -0x60(%rbp),%rax
  405e41:	48 89 c7             	mov    %rax,%rdi
  405e44:	e8 c9 02 00 00       	callq  406112 <_ZNK9__gnu_cxx17__normal_iteratorIPSsSt6vectorISsSaISsEEE4baseEv>
  405e49:	48 8b 00             	mov    (%rax),%rax
  405e4c:	48 8b 55 e8          	mov    -0x18(%rbp),%rdx
  405e50:	4c 89 e1             	mov    %r12,%rcx
  405e53:	48 89 de             	mov    %rbx,%rsi
  405e56:	48 89 c7             	mov    %rax,%rdi
  405e59:	e8 88 04 00 00       	callq  4062e6 <_ZSt22__uninitialized_move_aIPSsS0_SaISsEET0_T_S3_S2_RT1_>
  405e5e:	48 89 45 e8          	mov    %rax,-0x18(%rbp)
  405e62:	48 8b 45 a8          	mov    -0x58(%rbp),%rax
  405e66:	48 89 c7             	mov    %rax,%rdi
  405e69:	e8 f0 01 00 00       	callq  40605e <_ZNSt12_Vector_baseISsSaISsEE19_M_get_Tp_allocatorEv>
  405e6e:	48 89 c2             	mov    %rax,%rdx
  405e71:	48 8b 45 a8          	mov    -0x58(%rbp),%rax
  405e75:	48 8b 48 08          	mov    0x8(%rax),%rcx
  405e79:	48 8b 45 a8          	mov    -0x58(%rbp),%rax
  405e7d:	48 8b 00             	mov    (%rax),%rax
  405e80:	48 89 ce             	mov    %rcx,%rsi
  405e83:	48 89 c7             	mov    %rax,%rdi
  405e86:	e8 e1 01 00 00       	callq  40606c <_ZSt8_DestroyIPSsSsEvT_S1_RSaIT0_E>
  405e8b:	48 8b 45 a8          	mov    -0x58(%rbp),%rax
  405e8f:	48 8b 40 10          	mov    0x10(%rax),%rax
  405e93:	48 89 c2             	mov    %rax,%rdx
  405e96:	48 8b 45 a8          	mov    -0x58(%rbp),%rax
  405e9a:	48 8b 00             	mov    (%rax),%rax
  405e9d:	48 89 d1             	mov    %rdx,%rcx
  405ea0:	48 29 c1             	sub    %rax,%rcx
  405ea3:	48 89 c8             	mov    %rcx,%rax
  405ea6:	48 c1 f8 03          	sar    $0x3,%rax
  405eaa:	48 89 c2             	mov    %rax,%rdx
  405ead:	48 8b 45 a8          	mov    -0x58(%rbp),%rax
  405eb1:	48 8b 08             	mov    (%rax),%rcx
  405eb4:	48 8b 45 a8          	mov    -0x58(%rbp),%rax
  405eb8:	48 89 ce             	mov    %rcx,%rsi
  405ebb:	48 89 c7             	mov    %rax,%rdi
  405ebe:	e8 7d 04 00 00       	callq  406340 <_ZNSt12_Vector_baseISsSaISsEE13_M_deallocateEPSsm>
  405ec3:	48 8b 45 a8          	mov    -0x58(%rbp),%rax
  405ec7:	48 8b 55 e0          	mov    -0x20(%rbp),%rdx
  405ecb:	48 89 10             	mov    %rdx,(%rax)
  405ece:	48 8b 45 a8          	mov    -0x58(%rbp),%rax
  405ed2:	48 8b 55 e8          	mov    -0x18(%rbp),%rdx
  405ed6:	48 89 50 08          	mov    %rdx,0x8(%rax)
  405eda:	48 8b 45 d0          	mov    -0x30(%rbp),%rax
  405ede:	48 c1 e0 03          	shl    $0x3,%rax
  405ee2:	48 89 c2             	mov    %rax,%rdx
  405ee5:	48 03 55 e0          	add    -0x20(%rbp),%rdx
  405ee9:	48 8b 45 a8          	mov    -0x58(%rbp),%rax
  405eed:	48 89 50 10          	mov    %rdx,0x10(%rax)
  405ef1:	e9 85 00 00 00       	jmpq   405f7b <_ZNSt6vectorISsSaISsEE13_M_insert_auxEN9__gnu_cxx17__normal_iteratorIPSsS1_EERKSs+0x319>
  405ef6:	48 89 c7             	mov    %rax,%rdi
  405ef9:	e8 f2 cc ff ff       	callq  402bf0 <__cxa_begin_catch@plt>
  405efe:	48 83 7d e8 00       	cmpq   $0x0,-0x18(%rbp)
  405f03:	75 20                	jne    405f25 <_ZNSt6vectorISsSaISsEE13_M_insert_auxEN9__gnu_cxx17__normal_iteratorIPSsS1_EERKSs+0x2c3>
  405f05:	48 8b 45 d8          	mov    -0x28(%rbp),%rax
  405f09:	48 c1 e0 03          	shl    $0x3,%rax
  405f0d:	48 89 c2             	mov    %rax,%rdx
  405f10:	48 03 55 e0          	add    -0x20(%rbp),%rdx
  405f14:	48 8b 45 a8          	mov    -0x58(%rbp),%rax
  405f18:	48 89 d6             	mov    %rdx,%rsi
  405f1b:	48 89 c7             	mov    %rax,%rdi
  405f1e:	e8 ff 03 00 00       	callq  406322 <_ZN9__gnu_cxx13new_allocatorISsE7destroyEPSs>
  405f23:	eb 22                	jmp    405f47 <_ZNSt6vectorISsSaISsEE13_M_insert_auxEN9__gnu_cxx17__normal_iteratorIPSsS1_EERKSs+0x2e5>
  405f25:	48 8b 45 a8          	mov    -0x58(%rbp),%rax
  405f29:	48 89 c7             	mov    %rax,%rdi
  405f2c:	e8 2d 01 00 00       	callq  40605e <_ZNSt12_Vector_baseISsSaISsEE19_M_get_Tp_allocatorEv>
  405f31:	48 89 c2             	mov    %rax,%rdx
  405f34:	48 8b 4d e8          	mov    -0x18(%rbp),%rcx
  405f38:	48 8b 45 e0          	mov    -0x20(%rbp),%rax
  405f3c:	48 89 ce             	mov    %rcx,%rsi
  405f3f:	48 89 c7             	mov    %rax,%rdi
  405f42:	e8 25 01 00 00       	callq  40606c <_ZSt8_DestroyIPSsSsEvT_S1_RSaIT0_E>
  405f47:	48 8b 45 a8          	mov    -0x58(%rbp),%rax
  405f4b:	48 8b 55 d0          	mov    -0x30(%rbp),%rdx
  405f4f:	48 8b 4d e0          	mov    -0x20(%rbp),%rcx
  405f53:	48 89 ce             	mov    %rcx,%rsi
  405f56:	48 89 c7             	mov    %rax,%rdi
  405f59:	e8 e2 03 00 00       	callq  406340 <_ZNSt12_Vector_baseISsSaISsEE13_M_deallocateEPSsm>
  405f5e:	e8 ad c8 ff ff       	callq  402810 <__cxa_rethrow@plt>
  405f63:	89 d3                	mov    %edx,%ebx
  405f65:	49 89 c4             	mov    %rax,%r12
  405f68:	e8 43 cc ff ff       	callq  402bb0 <__cxa_end_catch@plt>
  405f6d:	4c 89 e0             	mov    %r12,%rax
  405f70:	48 63 d3             	movslq %ebx,%rdx
  405f73:	48 89 c7             	mov    %rax,%rdi
  405f76:	e8 e5 cc ff ff       	callq  402c60 <_Unwind_Resume@plt>
  405f7b:	48 83 c4 60          	add    $0x60,%rsp
  405f7f:	5b                   	pop    %rbx
  405f80:	41 5c                	pop    %r12
  405f82:	c9                   	leaveq 
  405f83:	c3                   	retq   

0000000000405f84 <_ZNSt6vectorISsSaISsEE3endEv>:
  405f84:	55                   	push   %rbp
  405f85:	48 89 e5             	mov    %rsp,%rbp
  405f88:	48 83 ec 20          	sub    $0x20,%rsp
  405f8c:	48 89 7d e8          	mov    %rdi,-0x18(%rbp)
  405f90:	48 8b 45 e8          	mov    -0x18(%rbp),%rax
  405f94:	48 8d 50 08          	lea    0x8(%rax),%rdx
  405f98:	48 8d 45 f0          	lea    -0x10(%rbp),%rax
  405f9c:	48 89 d6             	mov    %rdx,%rsi
  405f9f:	48 89 c7             	mov    %rax,%rdi
  405fa2:	e8 cd 03 00 00       	callq  406374 <_ZN9__gnu_cxx17__normal_iteratorIPSsSt6vectorISsSaISsEEEC1ERKS1_>
  405fa7:	48 8b 45 f0          	mov    -0x10(%rbp),%rax
  405fab:	c9                   	leaveq 
  405fac:	c3                   	retq   
  405fad:	90                   	nop

0000000000405fae <_ZNSt12_Vector_baseISsSaISsEE12_Vector_implD1Ev>:
  405fae:	55                   	push   %rbp
  405faf:	48 89 e5             	mov    %rsp,%rbp
  405fb2:	48 83 ec 10          	sub    $0x10,%rsp
  405fb6:	48 89 7d f8          	mov    %rdi,-0x8(%rbp)
  405fba:	48 8b 45 f8          	mov    -0x8(%rbp),%rax
  405fbe:	48 89 c7             	mov    %rax,%rdi
  405fc1:	e8 08 04 00 00       	callq  4063ce <_ZNSaISsED2Ev>
  405fc6:	c9                   	leaveq 
  405fc7:	c3                   	retq   

0000000000405fc8 <_ZNSt12_Vector_baseISsSaISsEEC2Ev>:
  405fc8:	55                   	push   %rbp
  405fc9:	48 89 e5             	mov    %rsp,%rbp
  405fcc:	48 83 ec 10          	sub    $0x10,%rsp
  405fd0:	48 89 7d f8          	mov    %rdi,-0x8(%rbp)
  405fd4:	48 8b 45 f8          	mov    -0x8(%rbp),%rax
  405fd8:	48 89 c7             	mov    %rax,%rdi
  405fdb:	e8 b0 03 00 00       	callq  406390 <_ZNSt12_Vector_baseISsSaISsEE12_Vector_implC1Ev>
  405fe0:	c9                   	leaveq 
  405fe1:	c3                   	retq   

0000000000405fe2 <_ZNSt12_Vector_baseISsSaISsEED2Ev>:
  405fe2:	55                   	push   %rbp
  405fe3:	48 89 e5             	mov    %rsp,%rbp
  405fe6:	41 54                	push   %r12
  405fe8:	53                   	push   %rbx
  405fe9:	48 83 ec 10          	sub    $0x10,%rsp
  405fed:	48 89 7d e8          	mov    %rdi,-0x18(%rbp)
  405ff1:	48 8b 45 e8          	mov    -0x18(%rbp),%rax
  405ff5:	48 8b 40 10          	mov    0x10(%rax),%rax
  405ff9:	48 89 c2             	mov    %rax,%rdx
  405ffc:	48 8b 45 e8          	mov    -0x18(%rbp),%rax
  406000:	48 8b 00             	mov    (%rax),%rax
  406003:	48 89 d1             	mov    %rdx,%rcx
  406006:	48 29 c1             	sub    %rax,%rcx
  406009:	48 89 c8             	mov    %rcx,%rax
  40600c:	48 c1 f8 03          	sar    $0x3,%rax
  406010:	48 89 c2             	mov    %rax,%rdx
  406013:	48 8b 45 e8          	mov    -0x18(%rbp),%rax
  406017:	48 8b 08             	mov    (%rax),%rcx
  40601a:	48 8b 45 e8          	mov    -0x18(%rbp),%rax
  40601e:	48 89 ce             	mov    %rcx,%rsi
  406021:	48 89 c7             	mov    %rax,%rdi
  406024:	e8 17 03 00 00       	callq  406340 <_ZNSt12_Vector_baseISsSaISsEE13_M_deallocateEPSsm>
  406029:	48 8b 45 e8          	mov    -0x18(%rbp),%rax
  40602d:	48 89 c7             	mov    %rax,%rdi
  406030:	e8 79 ff ff ff       	callq  405fae <_ZNSt12_Vector_baseISsSaISsEE12_Vector_implD1Ev>
  406035:	48 83 c4 10          	add    $0x10,%rsp
  406039:	5b                   	pop    %rbx
  40603a:	41 5c                	pop    %r12
  40603c:	c9                   	leaveq 
  40603d:	c3                   	retq   
  40603e:	89 d3                	mov    %edx,%ebx
  406040:	49 89 c4             	mov    %rax,%r12
  406043:	48 8b 45 e8          	mov    -0x18(%rbp),%rax
  406047:	48 89 c7             	mov    %rax,%rdi
  40604a:	e8 5f ff ff ff       	callq  405fae <_ZNSt12_Vector_baseISsSaISsEE12_Vector_implD1Ev>
  40604f:	4c 89 e0             	mov    %r12,%rax
  406052:	48 63 d3             	movslq %ebx,%rdx
  406055:	48 89 c7             	mov    %rax,%rdi
  406058:	e8 03 cc ff ff       	callq  402c60 <_Unwind_Resume@plt>
  40605d:	90                   	nop

000000000040605e <_ZNSt12_Vector_baseISsSaISsEE19_M_get_Tp_allocatorEv>:
  40605e:	55                   	push   %rbp
  40605f:	48 89 e5             	mov    %rsp,%rbp
  406062:	48 89 7d f8          	mov    %rdi,-0x8(%rbp)
  406066:	48 8b 45 f8          	mov    -0x8(%rbp),%rax
  40606a:	c9                   	leaveq 
  40606b:	c3                   	retq   

000000000040606c <_ZSt8_DestroyIPSsSsEvT_S1_RSaIT0_E>:
  40606c:	55                   	push   %rbp
  40606d:	48 89 e5             	mov    %rsp,%rbp
  406070:	48 83 ec 20          	sub    $0x20,%rsp
  406074:	48 89 7d f8          	mov    %rdi,-0x8(%rbp)
  406078:	48 89 75 f0          	mov    %rsi,-0x10(%rbp)
  40607c:	48 89 55 e8          	mov    %rdx,-0x18(%rbp)
  406080:	48 8b 55 f0          	mov    -0x10(%rbp),%rdx
  406084:	48 8b 45 f8          	mov    -0x8(%rbp),%rax
  406088:	48 89 d6             	mov    %rdx,%rsi
  40608b:	48 89 c7             	mov    %rax,%rdi
  40608e:	e8 55 03 00 00       	callq  4063e8 <_ZSt8_DestroyIPSsEvT_S1_>
  406093:	c9                   	leaveq 
  406094:	c3                   	retq   
  406095:	90                   	nop

0000000000406096 <_ZNKSt12_Vector_baseISsSaISsEE19_M_get_Tp_allocatorEv>:
  406096:	55                   	push   %rbp
  406097:	48 89 e5             	mov    %rsp,%rbp
  40609a:	48 89 7d f8          	mov    %rdi,-0x8(%rbp)
  40609e:	48 8b 45 f8          	mov    -0x8(%rbp),%rax
  4060a2:	c9                   	leaveq 
  4060a3:	c3                   	retq   

00000000004060a4 <_ZN9__gnu_cxxneIPcSsEEbRKNS_17__normal_iteratorIT_T0_EES7_>:
  4060a4:	55                   	push   %rbp
  4060a5:	48 89 e5             	mov    %rsp,%rbp
  4060a8:	53                   	push   %rbx
  4060a9:	48 83 ec 18          	sub    $0x18,%rsp
  4060ad:	48 89 7d e8          	mov    %rdi,-0x18(%rbp)
  4060b1:	48 89 75 e0          	mov    %rsi,-0x20(%rbp)
  4060b5:	48 8b 45 e8          	mov    -0x18(%rbp),%rax
  4060b9:	48 89 c7             	mov    %rax,%rdi
  4060bc:	e8 4d 03 00 00       	callq  40640e <_ZNK9__gnu_cxx17__normal_iteratorIPcSsE4baseEv>
  4060c1:	48 8b 18             	mov    (%rax),%rbx
  4060c4:	48 8b 45 e0          	mov    -0x20(%rbp),%rax
  4060c8:	48 89 c7             	mov    %rax,%rdi
  4060cb:	e8 3e 03 00 00       	callq  40640e <_ZNK9__gnu_cxx17__normal_iteratorIPcSsE4baseEv>
  4060d0:	48 8b 00             	mov    (%rax),%rax
  4060d3:	48 39 c3             	cmp    %rax,%rbx
  4060d6:	0f 95 c0             	setne  %al
  4060d9:	48 83 c4 18          	add    $0x18,%rsp
  4060dd:	5b                   	pop    %rbx
  4060de:	c9                   	leaveq 
  4060df:	c3                   	retq   

00000000004060e0 <_ZN9__gnu_cxx17__normal_iteratorIPcSsEppEv>:
  4060e0:	55                   	push   %rbp
  4060e1:	48 89 e5             	mov    %rsp,%rbp
  4060e4:	48 89 7d f8          	mov    %rdi,-0x8(%rbp)
  4060e8:	48 8b 45 f8          	mov    -0x8(%rbp),%rax
  4060ec:	48 8b 00             	mov    (%rax),%rax
  4060ef:	48 8d 50 01          	lea    0x1(%rax),%rdx
  4060f3:	48 8b 45 f8          	mov    -0x8(%rbp),%rax
  4060f7:	48 89 10             	mov    %rdx,(%rax)
  4060fa:	48 8b 45 f8          	mov    -0x8(%rbp),%rax
  4060fe:	c9                   	leaveq 
  4060ff:	c3                   	retq   

0000000000406100 <_ZNK9__gnu_cxx17__normal_iteratorIPcSsEdeEv>:
  406100:	55                   	push   %rbp
  406101:	48 89 e5             	mov    %rsp,%rbp
  406104:	48 89 7d f8          	mov    %rdi,-0x8(%rbp)
  406108:	48 8b 45 f8          	mov    -0x8(%rbp),%rax
  40610c:	48 8b 00             	mov    (%rax),%rax
  40610f:	c9                   	leaveq 
  406110:	c3                   	retq   
  406111:	90                   	nop

0000000000406112 <_ZNK9__gnu_cxx17__normal_iteratorIPSsSt6vectorISsSaISsEEE4baseEv>:
  406112:	55                   	push   %rbp
  406113:	48 89 e5             	mov    %rsp,%rbp
  406116:	48 89 7d f8          	mov    %rdi,-0x8(%rbp)
  40611a:	48 8b 45 f8          	mov    -0x8(%rbp),%rax
  40611e:	c9                   	leaveq 
  40611f:	c3                   	retq   

0000000000406120 <_ZSt13copy_backwardIPSsS0_ET0_T_S2_S1_>:
  406120:	55                   	push   %rbp
  406121:	48 89 e5             	mov    %rsp,%rbp
  406124:	53                   	push   %rbx
  406125:	48 83 ec 28          	sub    $0x28,%rsp
  406129:	48 89 7d e8          	mov    %rdi,-0x18(%rbp)
  40612d:	48 89 75 e0          	mov    %rsi,-0x20(%rbp)
  406131:	48 89 55 d8          	mov    %rdx,-0x28(%rbp)
  406135:	48 8b 45 e0          	mov    -0x20(%rbp),%rax
  406139:	48 89 c7             	mov    %rax,%rdi
  40613c:	e8 06 03 00 00       	callq  406447 <_ZNSt12__miter_baseIPSsLb0EE3__bES0_>
  406141:	48 89 c3             	mov    %rax,%rbx
  406144:	48 8b 45 e8          	mov    -0x18(%rbp),%rax
  406148:	48 89 c7             	mov    %rax,%rdi
  40614b:	e8 f7 02 00 00       	callq  406447 <_ZNSt12__miter_baseIPSsLb0EE3__bES0_>
  406150:	48 8b 55 d8          	mov    -0x28(%rbp),%rdx
  406154:	48 89 de             	mov    %rbx,%rsi
  406157:	48 89 c7             	mov    %rax,%rdi
  40615a:	e8 f6 02 00 00       	callq  406455 <_ZSt23__copy_move_backward_a2ILb0EPSsS0_ET1_T0_S2_S1_>
  40615f:	48 83 c4 28          	add    $0x28,%rsp
  406163:	5b                   	pop    %rbx
  406164:	c9                   	leaveq 
  406165:	c3                   	retq   

0000000000406166 <_ZNK9__gnu_cxx17__normal_iteratorIPSsSt6vectorISsSaISsEEEdeEv>:
  406166:	55                   	push   %rbp
  406167:	48 89 e5             	mov    %rsp,%rbp
  40616a:	48 89 7d f8          	mov    %rdi,-0x8(%rbp)
  40616e:	48 8b 45 f8          	mov    -0x8(%rbp),%rax
  406172:	48 8b 00             	mov    (%rax),%rax
  406175:	c9                   	leaveq 
  406176:	c3                   	retq   
  406177:	90                   	nop

0000000000406178 <_ZNKSt6vectorISsSaISsEE12_M_check_lenEmPKc>:
  406178:	55                   	push   %rbp
  406179:	48 89 e5             	mov    %rsp,%rbp
  40617c:	53                   	push   %rbx
  40617d:	48 83 ec 38          	sub    $0x38,%rsp
  406181:	48 89 7d d8          	mov    %rdi,-0x28(%rbp)
  406185:	48 89 75 d0          	mov    %rsi,-0x30(%rbp)
  406189:	48 89 55 c8          	mov    %rdx,-0x38(%rbp)
  40618d:	48 8b 45 d8          	mov    -0x28(%rbp),%rax
  406191:	48 89 c7             	mov    %rax,%rdi
  406194:	e8 15 03 00 00       	callq  4064ae <_ZNKSt6vectorISsSaISsEE8max_sizeEv>
  406199:	48 89 c3             	mov    %rax,%rbx
  40619c:	48 8b 45 d8          	mov    -0x28(%rbp),%rax
  4061a0:	48 89 c7             	mov    %rax,%rdi
  4061a3:	e8 e2 f8 ff ff       	callq  405a8a <_ZNKSt6vectorISsSaISsEE4sizeEv>
  4061a8:	48 89 da             	mov    %rbx,%rdx
  4061ab:	48 29 c2             	sub    %rax,%rdx
  4061ae:	48 8b 45 d0          	mov    -0x30(%rbp),%rax
  4061b2:	48 39 c2             	cmp    %rax,%rdx
  4061b5:	0f 92 c0             	setb   %al
  4061b8:	84 c0                	test   %al,%al
  4061ba:	74 0c                	je     4061c8 <_ZNKSt6vectorISsSaISsEE12_M_check_lenEmPKc+0x50>
  4061bc:	48 8b 45 c8          	mov    -0x38(%rbp),%rax
  4061c0:	48 89 c7             	mov    %rax,%rdi
  4061c3:	e8 f8 c4 ff ff       	callq  4026c0 <_ZSt20__throw_length_errorPKc@plt>
  4061c8:	48 8b 45 d8          	mov    -0x28(%rbp),%rax
  4061cc:	48 89 c7             	mov    %rax,%rdi
  4061cf:	e8 b6 f8 ff ff       	callq  405a8a <_ZNKSt6vectorISsSaISsEE4sizeEv>
  4061d4:	48 89 c3             	mov    %rax,%rbx
  4061d7:	48 8b 45 d8          	mov    -0x28(%rbp),%rax
  4061db:	48 89 c7             	mov    %rax,%rdi
  4061de:	e8 a7 f8 ff ff       	callq  405a8a <_ZNKSt6vectorISsSaISsEE4sizeEv>
  4061e3:	48 89 45 e0          	mov    %rax,-0x20(%rbp)
  4061e7:	48 8d 55 d0          	lea    -0x30(%rbp),%rdx
  4061eb:	48 8d 45 e0          	lea    -0x20(%rbp),%rax
  4061ef:	48 89 d6             	mov    %rdx,%rsi
  4061f2:	48 89 c7             	mov    %rax,%rdi
  4061f5:	e8 22 02 00 00       	callq  40641c <_ZSt3maxImERKT_S2_S2_>
  4061fa:	48 8b 00             	mov    (%rax),%rax
  4061fd:	48 8d 04 03          	lea    (%rbx,%rax,1),%rax
  406201:	48 89 45 e8          	mov    %rax,-0x18(%rbp)
  406205:	48 8b 45 d8          	mov    -0x28(%rbp),%rax
  406209:	48 89 c7             	mov    %rax,%rdi
  40620c:	e8 79 f8 ff ff       	callq  405a8a <_ZNKSt6vectorISsSaISsEE4sizeEv>
  406211:	48 3b 45 e8          	cmp    -0x18(%rbp),%rax
  406215:	77 12                	ja     406229 <_ZNKSt6vectorISsSaISsEE12_M_check_lenEmPKc+0xb1>
  406217:	48 8b 45 d8          	mov    -0x28(%rbp),%rax
  40621b:	48 89 c7             	mov    %rax,%rdi
  40621e:	e8 8b 02 00 00       	callq  4064ae <_ZNKSt6vectorISsSaISsEE8max_sizeEv>
  406223:	48 3b 45 e8          	cmp    -0x18(%rbp),%rax
  406227:	73 0e                	jae    406237 <_ZNKSt6vectorISsSaISsEE12_M_check_lenEmPKc+0xbf>
  406229:	48 8b 45 d8          	mov    -0x28(%rbp),%rax
  40622d:	48 89 c7             	mov    %rax,%rdi
  406230:	e8 79 02 00 00       	callq  4064ae <_ZNKSt6vectorISsSaISsEE8max_sizeEv>
  406235:	eb 04                	jmp    40623b <_ZNKSt6vectorISsSaISsEE12_M_check_lenEmPKc+0xc3>
  406237:	48 8b 45 e8          	mov    -0x18(%rbp),%rax
  40623b:	48 83 c4 38          	add    $0x38,%rsp
  40623f:	5b                   	pop    %rbx
  406240:	c9                   	leaveq 
  406241:	c3                   	retq   

0000000000406242 <_ZNSt6vectorISsSaISsEE5beginEv>:
  406242:	55                   	push   %rbp
  406243:	48 89 e5             	mov    %rsp,%rbp
  406246:	48 83 ec 20          	sub    $0x20,%rsp
  40624a:	48 89 7d e8          	mov    %rdi,-0x18(%rbp)
  40624e:	48 8b 55 e8          	mov    -0x18(%rbp),%rdx
  406252:	48 8d 45 f0          	lea    -0x10(%rbp),%rax
  406256:	48 89 d6             	mov    %rdx,%rsi
  406259:	48 89 c7             	mov    %rax,%rdi
  40625c:	e8 13 01 00 00       	callq  406374 <_ZN9__gnu_cxx17__normal_iteratorIPSsSt6vectorISsSaISsEEEC1ERKS1_>
  406261:	48 8b 45 f0          	mov    -0x10(%rbp),%rax
  406265:	c9                   	leaveq 
  406266:	c3                   	retq   

0000000000406267 <_ZN9__gnu_cxxmiIPSsSt6vectorISsSaISsEEEENS_17__normal_iteratorIT_T0_E15difference_typeERKS8_SB_>:
  406267:	55                   	push   %rbp
  406268:	48 89 e5             	mov    %rsp,%rbp
  40626b:	53                   	push   %rbx
  40626c:	48 83 ec 18          	sub    $0x18,%rsp
  406270:	48 89 7d e8          	mov    %rdi,-0x18(%rbp)
  406274:	48 89 75 e0          	mov    %rsi,-0x20(%rbp)
  406278:	48 8b 45 e8          	mov    -0x18(%rbp),%rax
  40627c:	48 89 c7             	mov    %rax,%rdi
  40627f:	e8 8e fe ff ff       	callq  406112 <_ZNK9__gnu_cxx17__normal_iteratorIPSsSt6vectorISsSaISsEEE4baseEv>
  406284:	48 8b 00             	mov    (%rax),%rax
  406287:	48 89 c3             	mov    %rax,%rbx
  40628a:	48 8b 45 e0          	mov    -0x20(%rbp),%rax
  40628e:	48 89 c7             	mov    %rax,%rdi
  406291:	e8 7c fe ff ff       	callq  406112 <_ZNK9__gnu_cxx17__normal_iteratorIPSsSt6vectorISsSaISsEEE4baseEv>
  406296:	48 8b 00             	mov    (%rax),%rax
  406299:	48 89 da             	mov    %rbx,%rdx
  40629c:	48 29 c2             	sub    %rax,%rdx
  40629f:	48 89 d0             	mov    %rdx,%rax
  4062a2:	48 c1 f8 03          	sar    $0x3,%rax
  4062a6:	48 83 c4 18          	add    $0x18,%rsp
  4062aa:	5b                   	pop    %rbx
  4062ab:	c9                   	leaveq 
  4062ac:	c3                   	retq   
  4062ad:	90                   	nop

00000000004062ae <_ZNSt12_Vector_baseISsSaISsEE11_M_allocateEm>:
  4062ae:	55                   	push   %rbp
  4062af:	48 89 e5             	mov    %rsp,%rbp
  4062b2:	48 83 ec 10          	sub    $0x10,%rsp
  4062b6:	48 89 7d f8          	mov    %rdi,-0x8(%rbp)
  4062ba:	48 89 75 f0          	mov    %rsi,-0x10(%rbp)
  4062be:	48 83 7d f0 00       	cmpq   $0x0,-0x10(%rbp)
  4062c3:	74 1a                	je     4062df <_ZNSt12_Vector_baseISsSaISsEE11_M_allocateEm+0x31>
  4062c5:	48 8b 45 f8          	mov    -0x8(%rbp),%rax
  4062c9:	48 8b 4d f0          	mov    -0x10(%rbp),%rcx
  4062cd:	ba 00 00 00 00       	mov    $0x0,%edx
  4062d2:	48 89 ce             	mov    %rcx,%rsi
  4062d5:	48 89 c7             	mov    %rax,%rdi
  4062d8:	e8 f3 01 00 00       	callq  4064d0 <_ZN9__gnu_cxx13new_allocatorISsE8allocateEmPKv>
  4062dd:	eb 05                	jmp    4062e4 <_ZNSt12_Vector_baseISsSaISsEE11_M_allocateEm+0x36>
  4062df:	b8 00 00 00 00       	mov    $0x0,%eax
  4062e4:	c9                   	leaveq 
  4062e5:	c3                   	retq   

00000000004062e6 <_ZSt22__uninitialized_move_aIPSsS0_SaISsEET0_T_S3_S2_RT1_>:
  4062e6:	55                   	push   %rbp
  4062e7:	48 89 e5             	mov    %rsp,%rbp
  4062ea:	53                   	push   %rbx
  4062eb:	48 83 ec 28          	sub    $0x28,%rsp
  4062ef:	48 89 7d e8          	mov    %rdi,-0x18(%rbp)
  4062f3:	48 89 75 e0          	mov    %rsi,-0x20(%rbp)
  4062f7:	48 89 55 d8          	mov    %rdx,-0x28(%rbp)
  4062fb:	48 89 4d d0          	mov    %rcx,-0x30(%rbp)
  4062ff:	48 8b 4d d0          	mov    -0x30(%rbp),%rcx
  406303:	48 8b 55 d8          	mov    -0x28(%rbp),%rdx
  406307:	48 8b 5d e0          	mov    -0x20(%rbp),%rbx
  40630b:	48 8b 45 e8          	mov    -0x18(%rbp),%rax
  40630f:	48 89 de             	mov    %rbx,%rsi
  406312:	48 89 c7             	mov    %rax,%rdi
  406315:	e8 01 02 00 00       	callq  40651b <_ZSt22__uninitialized_copy_aIPSsS0_SsET0_T_S2_S1_RSaIT1_E>
  40631a:	48 83 c4 28          	add    $0x28,%rsp
  40631e:	5b                   	pop    %rbx
  40631f:	c9                   	leaveq 
  406320:	c3                   	retq   
  406321:	90                   	nop

0000000000406322 <_ZN9__gnu_cxx13new_allocatorISsE7destroyEPSs>:
  406322:	55                   	push   %rbp
  406323:	48 89 e5             	mov    %rsp,%rbp
  406326:	48 83 ec 10          	sub    $0x10,%rsp
  40632a:	48 89 7d f8          	mov    %rdi,-0x8(%rbp)
  40632e:	48 89 75 f0          	mov    %rsi,-0x10(%rbp)
  406332:	48 8b 45 f0          	mov    -0x10(%rbp),%rax
  406336:	48 89 c7             	mov    %rax,%rdi
  406339:	e8 c2 c5 ff ff       	callq  402900 <_ZNSsD1Ev@plt>
  40633e:	c9                   	leaveq 
  40633f:	c3                   	retq   

0000000000406340 <_ZNSt12_Vector_baseISsSaISsEE13_M_deallocateEPSsm>:
  406340:	55                   	push   %rbp
  406341:	48 89 e5             	mov    %rsp,%rbp
  406344:	48 83 ec 20          	sub    $0x20,%rsp
  406348:	48 89 7d f8          	mov    %rdi,-0x8(%rbp)
  40634c:	48 89 75 f0          	mov    %rsi,-0x10(%rbp)
  406350:	48 89 55 e8          	mov    %rdx,-0x18(%rbp)
  406354:	48 83 7d f0 00       	cmpq   $0x0,-0x10(%rbp)
  406359:	74 17                	je     406372 <_ZNSt12_Vector_baseISsSaISsEE13_M_deallocateEPSsm+0x32>
  40635b:	48 8b 45 f8          	mov    -0x8(%rbp),%rax
  40635f:	48 8b 55 e8          	mov    -0x18(%rbp),%rdx
  406363:	48 8b 4d f0          	mov    -0x10(%rbp),%rcx
  406367:	48 89 ce             	mov    %rcx,%rsi
  40636a:	48 89 c7             	mov    %rax,%rdi
  40636d:	e8 da 01 00 00       	callq  40654c <_ZN9__gnu_cxx13new_allocatorISsE10deallocateEPSsm>
  406372:	c9                   	leaveq 
  406373:	c3                   	retq   

0000000000406374 <_ZN9__gnu_cxx17__normal_iteratorIPSsSt6vectorISsSaISsEEEC1ERKS1_>:
  406374:	55                   	push   %rbp
  406375:	48 89 e5             	mov    %rsp,%rbp
  406378:	48 89 7d f8          	mov    %rdi,-0x8(%rbp)
  40637c:	48 89 75 f0          	mov    %rsi,-0x10(%rbp)
  406380:	48 8b 45 f0          	mov    -0x10(%rbp),%rax
  406384:	48 8b 10             	mov    (%rax),%rdx
  406387:	48 8b 45 f8          	mov    -0x8(%rbp),%rax
  40638b:	48 89 10             	mov    %rdx,(%rax)
  40638e:	c9                   	leaveq 
  40638f:	c3                   	retq   

0000000000406390 <_ZNSt12_Vector_baseISsSaISsEE12_Vector_implC1Ev>:
  406390:	55                   	push   %rbp
  406391:	48 89 e5             	mov    %rsp,%rbp
  406394:	48 83 ec 10          	sub    $0x10,%rsp
  406398:	48 89 7d f8          	mov    %rdi,-0x8(%rbp)
  40639c:	48 8b 45 f8          	mov    -0x8(%rbp),%rax
  4063a0:	48 89 c7             	mov    %rax,%rdi
  4063a3:	e8 c6 01 00 00       	callq  40656e <_ZNSaISsEC2Ev>
  4063a8:	48 8b 45 f8          	mov    -0x8(%rbp),%rax
  4063ac:	48 c7 00 00 00 00 00 	movq   $0x0,(%rax)
  4063b3:	48 8b 45 f8          	mov    -0x8(%rbp),%rax
  4063b7:	48 c7 40 08 00 00 00 	movq   $0x0,0x8(%rax)
  4063be:	00 
  4063bf:	48 8b 45 f8          	mov    -0x8(%rbp),%rax
  4063c3:	48 c7 40 10 00 00 00 	movq   $0x0,0x10(%rax)
  4063ca:	00 
  4063cb:	c9                   	leaveq 
  4063cc:	c3                   	retq   
  4063cd:	90                   	nop

00000000004063ce <_ZNSaISsED2Ev>:
  4063ce:	55                   	push   %rbp
  4063cf:	48 89 e5             	mov    %rsp,%rbp
  4063d2:	48 83 ec 10          	sub    $0x10,%rsp
  4063d6:	48 89 7d f8          	mov    %rdi,-0x8(%rbp)
  4063da:	48 8b 45 f8          	mov    -0x8(%rbp),%rax
  4063de:	48 89 c7             	mov    %rax,%rdi
  4063e1:	e8 a2 01 00 00       	callq  406588 <_ZN9__gnu_cxx13new_allocatorISsED2Ev>
  4063e6:	c9                   	leaveq 
  4063e7:	c3                   	retq   

00000000004063e8 <_ZSt8_DestroyIPSsEvT_S1_>:
  4063e8:	55                   	push   %rbp
  4063e9:	48 89 e5             	mov    %rsp,%rbp
  4063ec:	48 83 ec 10          	sub    $0x10,%rsp
  4063f0:	48 89 7d f8          	mov    %rdi,-0x8(%rbp)
  4063f4:	48 89 75 f0          	mov    %rsi,-0x10(%rbp)
  4063f8:	48 8b 55 f0          	mov    -0x10(%rbp),%rdx
  4063fc:	48 8b 45 f8          	mov    -0x8(%rbp),%rax
  406400:	48 89 d6             	mov    %rdx,%rsi
  406403:	48 89 c7             	mov    %rax,%rdi
  406406:	e8 87 01 00 00       	callq  406592 <_ZNSt12_Destroy_auxILb0EE9__destroyIPSsEEvT_S3_>
  40640b:	c9                   	leaveq 
  40640c:	c3                   	retq   
  40640d:	90                   	nop

000000000040640e <_ZNK9__gnu_cxx17__normal_iteratorIPcSsE4baseEv>:
  40640e:	55                   	push   %rbp
  40640f:	48 89 e5             	mov    %rsp,%rbp
  406412:	48 89 7d f8          	mov    %rdi,-0x8(%rbp)
  406416:	48 8b 45 f8          	mov    -0x8(%rbp),%rax
  40641a:	c9                   	leaveq 
  40641b:	c3                   	retq   

000000000040641c <_ZSt3maxImERKT_S2_S2_>:
  40641c:	55                   	push   %rbp
  40641d:	48 89 e5             	mov    %rsp,%rbp
  406420:	48 89 7d f8          	mov    %rdi,-0x8(%rbp)
  406424:	48 89 75 f0          	mov    %rsi,-0x10(%rbp)
  406428:	48 8b 45 f8          	mov    -0x8(%rbp),%rax
  40642c:	48 8b 10             	mov    (%rax),%rdx
  40642f:	48 8b 45 f0          	mov    -0x10(%rbp),%rax
  406433:	48 8b 00             	mov    (%rax),%rax
  406436:	48 39 c2             	cmp    %rax,%rdx
  406439:	73 06                	jae    406441 <_ZSt3maxImERKT_S2_S2_+0x25>
  40643b:	48 8b 45 f0          	mov    -0x10(%rbp),%rax
  40643f:	eb 04                	jmp    406445 <_ZSt3maxImERKT_S2_S2_+0x29>
  406441:	48 8b 45 f8          	mov    -0x8(%rbp),%rax
  406445:	c9                   	leaveq 
  406446:	c3                   	retq   

0000000000406447 <_ZNSt12__miter_baseIPSsLb0EE3__bES0_>:
  406447:	55                   	push   %rbp
  406448:	48 89 e5             	mov    %rsp,%rbp
  40644b:	48 89 7d f8          	mov    %rdi,-0x8(%rbp)
  40644f:	48 8b 45 f8          	mov    -0x8(%rbp),%rax
  406453:	c9                   	leaveq 
  406454:	c3                   	retq   

0000000000406455 <_ZSt23__copy_move_backward_a2ILb0EPSsS0_ET1_T0_S2_S1_>:
  406455:	55                   	push   %rbp
  406456:	48 89 e5             	mov    %rsp,%rbp
  406459:	41 54                	push   %r12
  40645b:	53                   	push   %rbx
  40645c:	48 83 ec 20          	sub    $0x20,%rsp
  406460:	48 89 7d e8          	mov    %rdi,-0x18(%rbp)
  406464:	48 89 75 e0          	mov    %rsi,-0x20(%rbp)
  406468:	48 89 55 d8          	mov    %rdx,-0x28(%rbp)
  40646c:	48 8b 45 d8          	mov    -0x28(%rbp),%rax
  406470:	48 89 c7             	mov    %rax,%rdi
  406473:	e8 4e 01 00 00       	callq  4065c6 <_ZNSt12__niter_baseIPSsLb0EE3__bES0_>
  406478:	49 89 c4             	mov    %rax,%r12
  40647b:	48 8b 45 e0          	mov    -0x20(%rbp),%rax
  40647f:	48 89 c7             	mov    %rax,%rdi
  406482:	e8 3f 01 00 00       	callq  4065c6 <_ZNSt12__niter_baseIPSsLb0EE3__bES0_>
  406487:	48 89 c3             	mov    %rax,%rbx
  40648a:	48 8b 45 e8          	mov    -0x18(%rbp),%rax
  40648e:	48 89 c7             	mov    %rax,%rdi
  406491:	e8 30 01 00 00       	callq  4065c6 <_ZNSt12__niter_baseIPSsLb0EE3__bES0_>
  406496:	4c 89 e2             	mov    %r12,%rdx
  406499:	48 89 de             	mov    %rbx,%rsi
  40649c:	48 89 c7             	mov    %rax,%rdi
  40649f:	e8 30 01 00 00       	callq  4065d4 <_ZSt22__copy_move_backward_aILb0EPSsS0_ET1_T0_S2_S1_>
  4064a4:	48 83 c4 20          	add    $0x20,%rsp
  4064a8:	5b                   	pop    %rbx
  4064a9:	41 5c                	pop    %r12
  4064ab:	c9                   	leaveq 
  4064ac:	c3                   	retq   
  4064ad:	90                   	nop

00000000004064ae <_ZNKSt6vectorISsSaISsEE8max_sizeEv>:
  4064ae:	55                   	push   %rbp
  4064af:	48 89 e5             	mov    %rsp,%rbp
  4064b2:	48 83 ec 10          	sub    $0x10,%rsp
  4064b6:	48 89 7d f8          	mov    %rdi,-0x8(%rbp)
  4064ba:	48 8b 45 f8          	mov    -0x8(%rbp),%rax
  4064be:	48 89 c7             	mov    %rax,%rdi
  4064c1:	e8 d0 fb ff ff       	callq  406096 <_ZNKSt12_Vector_baseISsSaISsEE19_M_get_Tp_allocatorEv>
  4064c6:	48 89 c7             	mov    %rax,%rdi
  4064c9:	e8 38 01 00 00       	callq  406606 <_ZNK9__gnu_cxx13new_allocatorISsE8max_sizeEv>
  4064ce:	c9                   	leaveq 
  4064cf:	c3                   	retq   

00000000004064d0 <_ZN9__gnu_cxx13new_allocatorISsE8allocateEmPKv>:
  4064d0:	55                   	push   %rbp
  4064d1:	48 89 e5             	mov    %rsp,%rbp
  4064d4:	48 83 ec 20          	sub    $0x20,%rsp
  4064d8:	48 89 7d f8          	mov    %rdi,-0x8(%rbp)
  4064dc:	48 89 75 f0          	mov    %rsi,-0x10(%rbp)
  4064e0:	48 89 55 e8          	mov    %rdx,-0x18(%rbp)
  4064e4:	48 8b 45 f8          	mov    -0x8(%rbp),%rax
  4064e8:	48 89 c7             	mov    %rax,%rdi
  4064eb:	e8 16 01 00 00       	callq  406606 <_ZNK9__gnu_cxx13new_allocatorISsE8max_sizeEv>
  4064f0:	48 3b 45 f0          	cmp    -0x10(%rbp),%rax
  4064f4:	0f 92 c0             	setb   %al
  4064f7:	0f b6 c0             	movzbl %al,%eax
  4064fa:	48 85 c0             	test   %rax,%rax
  4064fd:	0f 95 c0             	setne  %al
  406500:	84 c0                	test   %al,%al
  406502:	74 05                	je     406509 <_ZN9__gnu_cxx13new_allocatorISsE8allocateEmPKv+0x39>
  406504:	e8 b7 c6 ff ff       	callq  402bc0 <_ZSt17__throw_bad_allocv@plt>
  406509:	48 8b 45 f0          	mov    -0x10(%rbp),%rax
  40650d:	48 c1 e0 03          	shl    $0x3,%rax
  406511:	48 89 c7             	mov    %rax,%rdi
  406514:	e8 37 c7 ff ff       	callq  402c50 <_Znwm@plt>
  406519:	c9                   	leaveq 
  40651a:	c3                   	retq   

